

HI-TECH Software PIC18 LITE Macro Assembler V9.80 build 11162 
                                                                                               Wed Oct 22 21:46:44 2014

HI-TECH Software Omniscient Code Generator (Lite mode) build 11162
     1  0000                     opt subtitle "HI-TECH Software Omniscient Code Generator (Lite mode) build 11162"
     2                           
     3                           opt pagewidth 120
     4                           
     5                           	opt lm
     6                           
     7                           	processor	18F67K22
     8  0000                     porta	equ	0F80h
     9  0000                     portb	equ	0F81h
    10  0000                     portc	equ	0F82h
    11  0000                     portd	equ	0F83h
    12  0000                     porte	equ	0F84h
    13  0000                     lata	equ	0F89h
    14  0000                     latb	equ	0F8Ah
    15  0000                     latc	equ	0F8Bh
    16  0000                     latd	equ	0F8Ch
    17  0000                     late	equ	0F8Dh
    18  0000                     trisa	equ	0F92h
    19  0000                     trisb	equ	0F93h
    20  0000                     trisc	equ	0F94h
    21  0000                     trisd	equ	0F95h
    22  0000                     trise	equ	0F96h
    23  0000                     pie1	equ	0F9Dh
    24  0000                     pir1	equ	0F9Eh
    25  0000                     ipr1	equ	0F9Fh
    26  0000                     pie2	equ	0FA0h
    27  0000                     pir2	equ	0FA1h
    28  0000                     ipr2	equ	0FA2h
    29  0000                     t3con	equ	0FB1h
    30  0000                     tmr3l	equ	0FB2h
    31  0000                     tmr3h	equ	0FB3h
    32  0000                     ccp1con	equ	0FBDh
    33  0000                     ccpr1l	equ	0FBEh
    34  0000                     ccpr1h	equ	0FBFh
    35  0000                     adcon1	equ	0FC1h
    36  0000                     adcon0	equ	0FC2h
    37  0000                     adresl	equ	0FC3h
    38  0000                     adresh	equ	0FC4h
    39  0000                     sspcon2	equ	0FC5h
    40  0000                     sspcon1	equ	0FC6h
    41  0000                     sspstat	equ	0FC7h
    42  0000                     sspadd	equ	0FC8h
    43  0000                     sspbuf	equ	0FC9h
    44  0000                     t2con	equ	0FCAh
    45  0000                     pr2	equ	0FCBh
    46  0000                     tmr2	equ	0FCCh
    47  0000                     t1con	equ	0FCDh
    48  0000                     tmr1l	equ	0FCEh
    49  0000                     tmr1h	equ	0FCFh
    50  0000                     rcon	equ	0FD0h
    51  0000                     wdtcon	equ	0FD1h
    52  0000                     lvdcon	equ	0FD2h
    53  0000                     osccon	equ	0FD3h
    54  0000                     t0con	equ	0FD5h
    55  0000                     tmr0l	equ	0FD6h
    56  0000                     tmr0h	equ	0FD7h
    57  0000                     status	equ	0FD8h
    58  0000                     fsr2	equ	0FD9h
    59  0000                     fsr2l	equ	0FD9h
    60  0000                     fsr2h	equ	0FDAh
    61  0000                     plusw2	equ	0FDBh
    62  0000                     preinc2	equ	0FDCh
    63  0000                     postdec2	equ	0FDDh
    64  0000                     postinc2	equ	0FDEh
    65  0000                     indf2	equ	0FDFh
    66  0000                     bsr	equ	0FE0h
    67  0000                     fsr1	equ	0FE1h
    68  0000                     fsr1l	equ	0FE1h
    69  0000                     fsr1h	equ	0FE2h
    70  0000                     plusw1	equ	0FE3h
    71  0000                     preinc1	equ	0FE4h
    72  0000                     postdec1	equ	0FE5h
    73  0000                     postinc1	equ	0FE6h
    74  0000                     indf1	equ	0FE7h
    75  0000                     wreg	equ	0FE8h
    76  0000                     fsr0	equ	0FE9h
    77  0000                     fsr0l	equ	0FE9h
    78  0000                     fsr0h	equ	0FEAh
    79  0000                     plusw0	equ	0FEBh
    80  0000                     preinc0	equ	0FECh
    81  0000                     postdec0	equ	0FEDh
    82  0000                     postinc0	equ	0FEEh
    83  0000                     indf0	equ	0FEFh
    84  0000                     intcon3	equ	0FF0h
    85  0000                     intcon2	equ	0FF1h
    86  0000                     intcon	equ	0FF2h
    87  0000                     prod	equ	0FF3h
    88  0000                     prodl	equ	0FF3h
    89  0000                     prodh	equ	0FF4h
    90  0000                     tablat	equ	0FF5h
    91  0000                     tblptr	equ	0FF6h
    92  0000                     tblptrl	equ	0FF6h
    93  0000                     tblptrh	equ	0FF7h
    94  0000                     tblptru	equ	0FF8h
    95  0000                     pcl	equ	0FF9h
    96  0000                     pclat	equ	0FFAh
    97  0000                     pclath	equ	0FFAh
    98  0000                     pclatu	equ	0FFBh
    99  0000                     stkptr	equ	0FFCh
   100  0000                     tosl	equ	0FFDh
   101  0000                     tosh	equ	0FFEh
   102  0000                     tosu	equ	0FFFh
   103                           skipnz macro
   104                           	btfsc	status,2
   105  0000                     	endm
   106                           	global	__ramtop
   107                           	global	__accesstop
   108                           # 19 "C:\Program Files (x86)\HI-TECH Software\PICC-18\9.80\include\pic18f67k22.h"
   109  0000                     PMD3 equ 0F16h ;# 
   110                           # 38 "C:\Program Files (x86)\HI-TECH Software\PICC-18\9.80\include\pic18f67k22.h"
   111  0000                     PMD2 equ 0F17h ;# 
   112                           # 57 "C:\Program Files (x86)\HI-TECH Software\PICC-18\9.80\include\pic18f67k22.h"
   113  0000                     PMD1 equ 0F18h ;# 
   114                           # 76 "C:\Program Files (x86)\HI-TECH Software\PICC-18\9.80\include\pic18f67k22.h"
   115  0000                     PMD0 equ 0F19h ;# 
   116                           # 103 "C:\Program Files (x86)\HI-TECH Software\PICC-18\9.80\include\pic18f67k22.h"
   117  0000                     PSTR3CON equ 0F1Ah ;# 
   118                           # 153 "C:\Program Files (x86)\HI-TECH Software\PICC-18\9.80\include\pic18f67k22.h"
   119  0000                     PSTR2CON equ 0F1Bh ;# 
   120                           # 249 "C:\Program Files (x86)\HI-TECH Software\PICC-18\9.80\include\pic18f67k22.h"
   121  0000                     TXREG2 equ 0F1Ch ;# 
   122                           # 261 "C:\Program Files (x86)\HI-TECH Software\PICC-18\9.80\include\pic18f67k22.h"
   123  0000                     RCREG2 equ 0F1Dh ;# 
   124                           # 273 "C:\Program Files (x86)\HI-TECH Software\PICC-18\9.80\include\pic18f67k22.h"
   125  0000                     SPBRG2 equ 0F1Eh ;# 
   126                           # 285 "C:\Program Files (x86)\HI-TECH Software\PICC-18\9.80\include\pic18f67k22.h"
   127  0000                     SPBRGH2 equ 0F1Fh ;# 
   128                           # 297 "C:\Program Files (x86)\HI-TECH Software\PICC-18\9.80\include\pic18f67k22.h"
   129  0000                     BAUDCON2 equ 0F20h ;# 
   130                           # 355 "C:\Program Files (x86)\HI-TECH Software\PICC-18\9.80\include\pic18f67k22.h"
   131  0000                     TXSTA2 equ 0F21h ;# 
   132                           # 391 "C:\Program Files (x86)\HI-TECH Software\PICC-18\9.80\include\pic18f67k22.h"
   133  0000                     RCSTA2 equ 0F22h ;# 
   134                           # 431 "C:\Program Files (x86)\HI-TECH Software\PICC-18\9.80\include\pic18f67k22.h"
   135  0000                     ANCON2 equ 0F23h ;# 
   136                           # 461 "C:\Program Files (x86)\HI-TECH Software\PICC-18\9.80\include\pic18f67k22.h"
   137  0000                     ANCON1 equ 0F24h ;# 
   138                           # 491 "C:\Program Files (x86)\HI-TECH Software\PICC-18\9.80\include\pic18f67k22.h"
   139  0000                     ANCON0 equ 0F25h ;# 
   140                           # 541 "C:\Program Files (x86)\HI-TECH Software\PICC-18\9.80\include\pic18f67k22.h"
   141  0000                     ODCON3 equ 0F27h ;# 
   142                           # 556 "C:\Program Files (x86)\HI-TECH Software\PICC-18\9.80\include\pic18f67k22.h"
   143  0000                     ODCON2 equ 0F28h ;# 
   144                           # 575 "C:\Program Files (x86)\HI-TECH Software\PICC-18\9.80\include\pic18f67k22.h"
   145  0000                     ODCON1 equ 0F29h ;# 
   146                           # 591 "C:\Program Files (x86)\HI-TECH Software\PICC-18\9.80\include\pic18f67k22.h"
   147  0000                     REFOCON equ 0F2Ah ;# 
   148                           # 613 "C:\Program Files (x86)\HI-TECH Software\PICC-18\9.80\include\pic18f67k22.h"
   149  0000                     CCPTMRS2 equ 0F2Bh ;# 
   150                           # 632 "C:\Program Files (x86)\HI-TECH Software\PICC-18\9.80\include\pic18f67k22.h"
   151  0000                     CCPTMRS1 equ 0F2Ch ;# 
   152                           # 656 "C:\Program Files (x86)\HI-TECH Software\PICC-18\9.80\include\pic18f67k22.h"
   153  0000                     CCPTMRS0 equ 0F2Dh ;# 
   154                           # 680 "C:\Program Files (x86)\HI-TECH Software\PICC-18\9.80\include\pic18f67k22.h"
   155  0000                     CM3CON equ 0F2Eh ;# 
   156                           # 685 "C:\Program Files (x86)\HI-TECH Software\PICC-18\9.80\include\pic18f67k22.h"
   157  0000                     CM3CON1 equ 0F2Eh ;# 
   158                           # 789 "C:\Program Files (x86)\HI-TECH Software\PICC-18\9.80\include\pic18f67k22.h"
   159  0000                     CM2CON equ 0F2Fh ;# 
   160                           # 794 "C:\Program Files (x86)\HI-TECH Software\PICC-18\9.80\include\pic18f67k22.h"
   161  0000                     CM2CON1 equ 0F2Fh ;# 
   162                           # 898 "C:\Program Files (x86)\HI-TECH Software\PICC-18\9.80\include\pic18f67k22.h"
   163  0000                     T12CON equ 0F30h ;# 
   164                           # 921 "C:\Program Files (x86)\HI-TECH Software\PICC-18\9.80\include\pic18f67k22.h"
   165  0000                     PR12 equ 0F31h ;# 
   166                           # 933 "C:\Program Files (x86)\HI-TECH Software\PICC-18\9.80\include\pic18f67k22.h"
   167  0000                     TMR12 equ 0F32h ;# 
   168                           # 945 "C:\Program Files (x86)\HI-TECH Software\PICC-18\9.80\include\pic18f67k22.h"
   169  0000                     T10CON equ 0F33h ;# 
   170                           # 968 "C:\Program Files (x86)\HI-TECH Software\PICC-18\9.80\include\pic18f67k22.h"
   171  0000                     PR10 equ 0F34h ;# 
   172                           # 980 "C:\Program Files (x86)\HI-TECH Software\PICC-18\9.80\include\pic18f67k22.h"
   173  0000                     TMR10 equ 0F35h ;# 
   174                           # 992 "C:\Program Files (x86)\HI-TECH Software\PICC-18\9.80\include\pic18f67k22.h"
   175  0000                     T8CON equ 0F36h ;# 
   176                           # 1015 "C:\Program Files (x86)\HI-TECH Software\PICC-18\9.80\include\pic18f67k22.h"
   177  0000                     PR8 equ 0F37h ;# 
   178                           # 1027 "C:\Program Files (x86)\HI-TECH Software\PICC-18\9.80\include\pic18f67k22.h"
   179  0000                     TMR8 equ 0F38h ;# 
   180                           # 1039 "C:\Program Files (x86)\HI-TECH Software\PICC-18\9.80\include\pic18f67k22.h"
   181  0000                     T6CON equ 0F39h ;# 
   182                           # 1062 "C:\Program Files (x86)\HI-TECH Software\PICC-18\9.80\include\pic18f67k22.h"
   183  0000                     PR6 equ 0F3Ah ;# 
   184                           # 1074 "C:\Program Files (x86)\HI-TECH Software\PICC-18\9.80\include\pic18f67k22.h"
   185  0000                     TMR6 equ 0F3Bh ;# 
   186                           # 1086 "C:\Program Files (x86)\HI-TECH Software\PICC-18\9.80\include\pic18f67k22.h"
   187  0000                     T7GCON equ 0F3Ch ;# 
   188                           # 1122 "C:\Program Files (x86)\HI-TECH Software\PICC-18\9.80\include\pic18f67k22.h"
   189  0000                     T7CON equ 0F3Dh ;# 
   190                           # 1158 "C:\Program Files (x86)\HI-TECH Software\PICC-18\9.80\include\pic18f67k22.h"
   191  0000                     TMR7 equ 0F3Eh ;# 
   192                           # 1164 "C:\Program Files (x86)\HI-TECH Software\PICC-18\9.80\include\pic18f67k22.h"
   193  0000                     TMR7L equ 0F3Eh ;# 
   194                           # 1207 "C:\Program Files (x86)\HI-TECH Software\PICC-18\9.80\include\pic18f67k22.h"
   195  0000                     TMR7H equ 0F3Fh ;# 
   196                           # 1219 "C:\Program Files (x86)\HI-TECH Software\PICC-18\9.80\include\pic18f67k22.h"
   197  0000                     CCP10CON equ 0F40h ;# 
   198                           # 1245 "C:\Program Files (x86)\HI-TECH Software\PICC-18\9.80\include\pic18f67k22.h"
   199  0000                     CCPR10 equ 0F41h ;# 
   200                           # 1251 "C:\Program Files (x86)\HI-TECH Software\PICC-18\9.80\include\pic18f67k22.h"
   201  0000                     CCPR10L equ 0F41h ;# 
   202                           # 1263 "C:\Program Files (x86)\HI-TECH Software\PICC-18\9.80\include\pic18f67k22.h"
   203  0000                     CCPR10H equ 0F42h ;# 
   204                           # 1275 "C:\Program Files (x86)\HI-TECH Software\PICC-18\9.80\include\pic18f67k22.h"
   205  0000                     CCP9CON equ 0F43h ;# 
   206                           # 1301 "C:\Program Files (x86)\HI-TECH Software\PICC-18\9.80\include\pic18f67k22.h"
   207  0000                     CCPR9 equ 0F44h ;# 
   208                           # 1307 "C:\Program Files (x86)\HI-TECH Software\PICC-18\9.80\include\pic18f67k22.h"
   209  0000                     CCPR9L equ 0F44h ;# 
   210                           # 1319 "C:\Program Files (x86)\HI-TECH Software\PICC-18\9.80\include\pic18f67k22.h"
   211  0000                     CCPR9H equ 0F45h ;# 
   212                           # 1331 "C:\Program Files (x86)\HI-TECH Software\PICC-18\9.80\include\pic18f67k22.h"
   213  0000                     CCP8CON equ 0F46h ;# 
   214                           # 1357 "C:\Program Files (x86)\HI-TECH Software\PICC-18\9.80\include\pic18f67k22.h"
   215  0000                     CCPR8 equ 0F47h ;# 
   216                           # 1363 "C:\Program Files (x86)\HI-TECH Software\PICC-18\9.80\include\pic18f67k22.h"
   217  0000                     CCPR8L equ 0F47h ;# 
   218                           # 1375 "C:\Program Files (x86)\HI-TECH Software\PICC-18\9.80\include\pic18f67k22.h"
   219  0000                     CCPR8H equ 0F48h ;# 
   220                           # 1387 "C:\Program Files (x86)\HI-TECH Software\PICC-18\9.80\include\pic18f67k22.h"
   221  0000                     CCP3CON equ 0F49h ;# 
   222                           # 1411 "C:\Program Files (x86)\HI-TECH Software\PICC-18\9.80\include\pic18f67k22.h"
   223  0000                     CCPR3 equ 0F4Ah ;# 
   224                           # 1417 "C:\Program Files (x86)\HI-TECH Software\PICC-18\9.80\include\pic18f67k22.h"
   225  0000                     CCPR3L equ 0F4Ah ;# 
   226                           # 1429 "C:\Program Files (x86)\HI-TECH Software\PICC-18\9.80\include\pic18f67k22.h"
   227  0000                     CCPR3H equ 0F4Bh ;# 
   228                           # 1441 "C:\Program Files (x86)\HI-TECH Software\PICC-18\9.80\include\pic18f67k22.h"
   229  0000                     ECCP3DEL equ 0F4Ch ;# 
   230                           # 1463 "C:\Program Files (x86)\HI-TECH Software\PICC-18\9.80\include\pic18f67k22.h"
   231  0000                     ECCP3AS equ 0F4Dh ;# 
   232                           # 1487 "C:\Program Files (x86)\HI-TECH Software\PICC-18\9.80\include\pic18f67k22.h"
   233  0000                     CCP2CON equ 0F4Eh ;# 
   234                           # 1492 "C:\Program Files (x86)\HI-TECH Software\PICC-18\9.80\include\pic18f67k22.h"
   235  0000                     ECCP2CON equ 0F4Eh ;# 
   236                           # 1544 "C:\Program Files (x86)\HI-TECH Software\PICC-18\9.80\include\pic18f67k22.h"
   237  0000                     CCPR2 equ 0F4Fh ;# 
   238                           # 1550 "C:\Program Files (x86)\HI-TECH Software\PICC-18\9.80\include\pic18f67k22.h"
   239  0000                     CCPR2L equ 0F4Fh ;# 
   240                           # 1562 "C:\Program Files (x86)\HI-TECH Software\PICC-18\9.80\include\pic18f67k22.h"
   241  0000                     CCPR2H equ 0F50h ;# 
   242                           # 1574 "C:\Program Files (x86)\HI-TECH Software\PICC-18\9.80\include\pic18f67k22.h"
   243  0000                     ECCP2DEL equ 0F51h ;# 
   244                           # 1579 "C:\Program Files (x86)\HI-TECH Software\PICC-18\9.80\include\pic18f67k22.h"
   245  0000                     PWM2CON equ 0F51h ;# 
   246                           # 1617 "C:\Program Files (x86)\HI-TECH Software\PICC-18\9.80\include\pic18f67k22.h"
   247  0000                     ECCP2AS equ 0F52h ;# 
   248                           # 1641 "C:\Program Files (x86)\HI-TECH Software\PICC-18\9.80\include\pic18f67k22.h"
   249  0000                     PADCFG1 equ 0F53h ;# 
   250                           # 1662 "C:\Program Files (x86)\HI-TECH Software\PICC-18\9.80\include\pic18f67k22.h"
   251  0000                     CM1CON equ 0F54h ;# 
   252                           # 1667 "C:\Program Files (x86)\HI-TECH Software\PICC-18\9.80\include\pic18f67k22.h"
   253  0000                     CM1CON1 equ 0F54h ;# 
   254                           # 1785 "C:\Program Files (x86)\HI-TECH Software\PICC-18\9.80\include\pic18f67k22.h"
   255  0000                     CTMUICON equ 0F55h ;# 
   256                           # 1808 "C:\Program Files (x86)\HI-TECH Software\PICC-18\9.80\include\pic18f67k22.h"
   257  0000                     CTMUCONL equ 0F56h ;# 
   258                           # 1833 "C:\Program Files (x86)\HI-TECH Software\PICC-18\9.80\include\pic18f67k22.h"
   259  0000                     CTMUCONH equ 0F57h ;# 
   260                           # 1852 "C:\Program Files (x86)\HI-TECH Software\PICC-18\9.80\include\pic18f67k22.h"
   261  0000                     ALRMVAL equ 0F58h ;# 
   262                           # 1858 "C:\Program Files (x86)\HI-TECH Software\PICC-18\9.80\include\pic18f67k22.h"
   263  0000                     ALRMVALL equ 0F58h ;# 
   264                           # 1870 "C:\Program Files (x86)\HI-TECH Software\PICC-18\9.80\include\pic18f67k22.h"
   265  0000                     ALRMVALH equ 0F59h ;# 
   266                           # 1882 "C:\Program Files (x86)\HI-TECH Software\PICC-18\9.80\include\pic18f67k22.h"
   267  0000                     ALRMRPT equ 0F5Ah ;# 
   268                           # 1904 "C:\Program Files (x86)\HI-TECH Software\PICC-18\9.80\include\pic18f67k22.h"
   269  0000                     ALRMCFG equ 0F5Bh ;# 
   270                           # 1927 "C:\Program Files (x86)\HI-TECH Software\PICC-18\9.80\include\pic18f67k22.h"
   271  0000                     RTCVAL equ 0F5Ch ;# 
   272                           # 1933 "C:\Program Files (x86)\HI-TECH Software\PICC-18\9.80\include\pic18f67k22.h"
   273  0000                     RTCVALL equ 0F5Ch ;# 
   274                           # 1945 "C:\Program Files (x86)\HI-TECH Software\PICC-18\9.80\include\pic18f67k22.h"
   275  0000                     RTCVALH equ 0F5Dh ;# 
   276                           # 1988 "C:\Program Files (x86)\HI-TECH Software\PICC-18\9.80\include\pic18f67k22.h"
   277  0000                     RTCCAL equ 0F5Eh ;# 
   278                           # 2010 "C:\Program Files (x86)\HI-TECH Software\PICC-18\9.80\include\pic18f67k22.h"
   279  0000                     RTCCFG equ 0F5Fh ;# 
   280                           # 2032 "C:\Program Files (x86)\HI-TECH Software\PICC-18\9.80\include\pic18f67k22.h"
   281  0000                     PIE6 equ 0F60h ;# 
   282                           # 2048 "C:\Program Files (x86)\HI-TECH Software\PICC-18\9.80\include\pic18f67k22.h"
   283  0000                     EEDATA equ 0F61h ;# 
   284                           # 2060 "C:\Program Files (x86)\HI-TECH Software\PICC-18\9.80\include\pic18f67k22.h"
   285  0000                     EEADR equ 0F62h ;# 
   286                           # 2072 "C:\Program Files (x86)\HI-TECH Software\PICC-18\9.80\include\pic18f67k22.h"
   287  0000                     EEADRH equ 0F63h ;# 
   288                           # 2084 "C:\Program Files (x86)\HI-TECH Software\PICC-18\9.80\include\pic18f67k22.h"
   289  0000                     OSCCON2 equ 0F64h ;# 
   290                           # 2101 "C:\Program Files (x86)\HI-TECH Software\PICC-18\9.80\include\pic18f67k22.h"
   291  0000                     BAUDCON1 equ 0F65h ;# 
   292                           # 2106 "C:\Program Files (x86)\HI-TECH Software\PICC-18\9.80\include\pic18f67k22.h"
   293  0000                     BAUDCTL equ 0F65h ;# 
   294                           # 2110 "C:\Program Files (x86)\HI-TECH Software\PICC-18\9.80\include\pic18f67k22.h"
   295  0000                     BAUDCON equ 0F65h ;# 
   296                           # 2343 "C:\Program Files (x86)\HI-TECH Software\PICC-18\9.80\include\pic18f67k22.h"
   297  0000                     SSP2CON2 equ 0F66h ;# 
   298                           # 2421 "C:\Program Files (x86)\HI-TECH Software\PICC-18\9.80\include\pic18f67k22.h"
   299  0000                     SSP2CON1 equ 0F67h ;# 
   300                           # 2474 "C:\Program Files (x86)\HI-TECH Software\PICC-18\9.80\include\pic18f67k22.h"
   301  0000                     SSP2STAT equ 0F68h ;# 
   302                           # 2647 "C:\Program Files (x86)\HI-TECH Software\PICC-18\9.80\include\pic18f67k22.h"
   303  0000                     SSP2ADD equ 0F69h ;# 
   304                           # 2690 "C:\Program Files (x86)\HI-TECH Software\PICC-18\9.80\include\pic18f67k22.h"
   305  0000                     SSP2MSK equ 0F69h ;# 
   306                           # 2709 "C:\Program Files (x86)\HI-TECH Software\PICC-18\9.80\include\pic18f67k22.h"
   307  0000                     SSP2BUF equ 0F6Ah ;# 
   308                           # 2721 "C:\Program Files (x86)\HI-TECH Software\PICC-18\9.80\include\pic18f67k22.h"
   309  0000                     T4CON equ 0F6Bh ;# 
   310                           # 2744 "C:\Program Files (x86)\HI-TECH Software\PICC-18\9.80\include\pic18f67k22.h"
   311  0000                     PR4 equ 0F6Ch ;# 
   312                           # 2756 "C:\Program Files (x86)\HI-TECH Software\PICC-18\9.80\include\pic18f67k22.h"
   313  0000                     TMR4 equ 0F6Dh ;# 
   314                           # 2768 "C:\Program Files (x86)\HI-TECH Software\PICC-18\9.80\include\pic18f67k22.h"
   315  0000                     CCP7CON equ 0F6Eh ;# 
   316                           # 2794 "C:\Program Files (x86)\HI-TECH Software\PICC-18\9.80\include\pic18f67k22.h"
   317  0000                     CCPR7 equ 0F6Fh ;# 
   318                           # 2800 "C:\Program Files (x86)\HI-TECH Software\PICC-18\9.80\include\pic18f67k22.h"
   319  0000                     CCPR7L equ 0F6Fh ;# 
   320                           # 2812 "C:\Program Files (x86)\HI-TECH Software\PICC-18\9.80\include\pic18f67k22.h"
   321  0000                     CCPR7H equ 0F70h ;# 
   322                           # 2824 "C:\Program Files (x86)\HI-TECH Software\PICC-18\9.80\include\pic18f67k22.h"
   323  0000                     CCP6CON equ 0F71h ;# 
   324                           # 2850 "C:\Program Files (x86)\HI-TECH Software\PICC-18\9.80\include\pic18f67k22.h"
   325  0000                     CCPR6 equ 0F72h ;# 
   326                           # 2856 "C:\Program Files (x86)\HI-TECH Software\PICC-18\9.80\include\pic18f67k22.h"
   327  0000                     CCPR6L equ 0F72h ;# 
   328                           # 2868 "C:\Program Files (x86)\HI-TECH Software\PICC-18\9.80\include\pic18f67k22.h"
   329  0000                     CCPR6H equ 0F73h ;# 
   330                           # 2880 "C:\Program Files (x86)\HI-TECH Software\PICC-18\9.80\include\pic18f67k22.h"
   331  0000                     CCP5CON equ 0F74h ;# 
   332                           # 2906 "C:\Program Files (x86)\HI-TECH Software\PICC-18\9.80\include\pic18f67k22.h"
   333  0000                     CCPR5 equ 0F75h ;# 
   334                           # 2912 "C:\Program Files (x86)\HI-TECH Software\PICC-18\9.80\include\pic18f67k22.h"
   335  0000                     CCPR5L equ 0F75h ;# 
   336                           # 2924 "C:\Program Files (x86)\HI-TECH Software\PICC-18\9.80\include\pic18f67k22.h"
   337  0000                     CCPR5H equ 0F76h ;# 
   338                           # 2936 "C:\Program Files (x86)\HI-TECH Software\PICC-18\9.80\include\pic18f67k22.h"
   339  0000                     CCP4CON equ 0F77h ;# 
   340                           # 2962 "C:\Program Files (x86)\HI-TECH Software\PICC-18\9.80\include\pic18f67k22.h"
   341  0000                     CCPR4 equ 0F78h ;# 
   342                           # 2968 "C:\Program Files (x86)\HI-TECH Software\PICC-18\9.80\include\pic18f67k22.h"
   343  0000                     CCPR4L equ 0F78h ;# 
   344                           # 2980 "C:\Program Files (x86)\HI-TECH Software\PICC-18\9.80\include\pic18f67k22.h"
   345  0000                     CCPR4H equ 0F79h ;# 
   346                           # 2992 "C:\Program Files (x86)\HI-TECH Software\PICC-18\9.80\include\pic18f67k22.h"
   347  0000                     T5GCON equ 0F7Ah ;# 
   348                           # 3028 "C:\Program Files (x86)\HI-TECH Software\PICC-18\9.80\include\pic18f67k22.h"
   349  0000                     T5CON equ 0F7Bh ;# 
   350                           # 3064 "C:\Program Files (x86)\HI-TECH Software\PICC-18\9.80\include\pic18f67k22.h"
   351  0000                     TMR5 equ 0F7Ch ;# 
   352                           # 3070 "C:\Program Files (x86)\HI-TECH Software\PICC-18\9.80\include\pic18f67k22.h"
   353  0000                     TMR5L equ 0F7Ch ;# 
   354                           # 3082 "C:\Program Files (x86)\HI-TECH Software\PICC-18\9.80\include\pic18f67k22.h"
   355  0000                     TMR5H equ 0F7Dh ;# 
   356                           # 3094 "C:\Program Files (x86)\HI-TECH Software\PICC-18\9.80\include\pic18f67k22.h"
   357  0000                     EECON2 equ 0F7Eh ;# 
   358                           # 3106 "C:\Program Files (x86)\HI-TECH Software\PICC-18\9.80\include\pic18f67k22.h"
   359  0000                     EECON1 equ 0F7Fh ;# 
   360                           # 3129 "C:\Program Files (x86)\HI-TECH Software\PICC-18\9.80\include\pic18f67k22.h"
   361  0000                     PORTA equ 0F80h ;# 
   362                           # 3190 "C:\Program Files (x86)\HI-TECH Software\PICC-18\9.80\include\pic18f67k22.h"
   363  0000                     PORTB equ 0F81h ;# 
   364                           # 3246 "C:\Program Files (x86)\HI-TECH Software\PICC-18\9.80\include\pic18f67k22.h"
   365  0000                     PORTC equ 0F82h ;# 
   366                           # 3301 "C:\Program Files (x86)\HI-TECH Software\PICC-18\9.80\include\pic18f67k22.h"
   367  0000                     PORTD equ 0F83h ;# 
   368                           # 3367 "C:\Program Files (x86)\HI-TECH Software\PICC-18\9.80\include\pic18f67k22.h"
   369  0000                     PORTE equ 0F84h ;# 
   370                           # 3497 "C:\Program Files (x86)\HI-TECH Software\PICC-18\9.80\include\pic18f67k22.h"
   371  0000                     PORTF equ 0F85h ;# 
   372                           # 3558 "C:\Program Files (x86)\HI-TECH Software\PICC-18\9.80\include\pic18f67k22.h"
   373  0000                     PORTG equ 0F86h ;# 
   374                           # 3634 "C:\Program Files (x86)\HI-TECH Software\PICC-18\9.80\include\pic18f67k22.h"
   375  0000                     LATA equ 0F89h ;# 
   376                           # 3687 "C:\Program Files (x86)\HI-TECH Software\PICC-18\9.80\include\pic18f67k22.h"
   377  0000                     LATB equ 0F8Ah ;# 
   378                           # 3740 "C:\Program Files (x86)\HI-TECH Software\PICC-18\9.80\include\pic18f67k22.h"
   379  0000                     LATC equ 0F8Bh ;# 
   380                           # 3793 "C:\Program Files (x86)\HI-TECH Software\PICC-18\9.80\include\pic18f67k22.h"
   381  0000                     LATD equ 0F8Ch ;# 
   382                           # 3846 "C:\Program Files (x86)\HI-TECH Software\PICC-18\9.80\include\pic18f67k22.h"
   383  0000                     LATE equ 0F8Dh ;# 
   384                           # 3899 "C:\Program Files (x86)\HI-TECH Software\PICC-18\9.80\include\pic18f67k22.h"
   385  0000                     LATF equ 0F8Eh ;# 
   386                           # 3952 "C:\Program Files (x86)\HI-TECH Software\PICC-18\9.80\include\pic18f67k22.h"
   387  0000                     LATG equ 0F8Fh ;# 
   388                           # 3990 "C:\Program Files (x86)\HI-TECH Software\PICC-18\9.80\include\pic18f67k22.h"
   389  0000                     TRISA equ 0F92h ;# 
   390                           # 4012 "C:\Program Files (x86)\HI-TECH Software\PICC-18\9.80\include\pic18f67k22.h"
   391  0000                     TRISB equ 0F93h ;# 
   392                           # 4034 "C:\Program Files (x86)\HI-TECH Software\PICC-18\9.80\include\pic18f67k22.h"
   393  0000                     TRISC equ 0F94h ;# 
   394                           # 4056 "C:\Program Files (x86)\HI-TECH Software\PICC-18\9.80\include\pic18f67k22.h"
   395  0000                     TRISD equ 0F95h ;# 
   396                           # 4078 "C:\Program Files (x86)\HI-TECH Software\PICC-18\9.80\include\pic18f67k22.h"
   397  0000                     TRISE equ 0F96h ;# 
   398                           # 4100 "C:\Program Files (x86)\HI-TECH Software\PICC-18\9.80\include\pic18f67k22.h"
   399  0000                     TRISF equ 0F97h ;# 
   400                           # 4122 "C:\Program Files (x86)\HI-TECH Software\PICC-18\9.80\include\pic18f67k22.h"
   401  0000                     TRISG equ 0F98h ;# 
   402                           # 4141 "C:\Program Files (x86)\HI-TECH Software\PICC-18\9.80\include\pic18f67k22.h"
   403  0000                     OSCTUNE equ 0F9Bh ;# 
   404                           # 4163 "C:\Program Files (x86)\HI-TECH Software\PICC-18\9.80\include\pic18f67k22.h"
   405  0000                     PSTR1CON equ 0F9Ch ;# 
   406                           # 4186 "C:\Program Files (x86)\HI-TECH Software\PICC-18\9.80\include\pic18f67k22.h"
   407  0000                     PIE1 equ 0F9Dh ;# 
   408                           # 4211 "C:\Program Files (x86)\HI-TECH Software\PICC-18\9.80\include\pic18f67k22.h"
   409  0000                     PIR1 equ 0F9Eh ;# 
   410                           # 4236 "C:\Program Files (x86)\HI-TECH Software\PICC-18\9.80\include\pic18f67k22.h"
   411  0000                     IPR1 equ 0F9Fh ;# 
   412                           # 4261 "C:\Program Files (x86)\HI-TECH Software\PICC-18\9.80\include\pic18f67k22.h"
   413  0000                     PIE2 equ 0FA0h ;# 
   414                           # 4285 "C:\Program Files (x86)\HI-TECH Software\PICC-18\9.80\include\pic18f67k22.h"
   415  0000                     PIR2 equ 0FA1h ;# 
   416                           # 4309 "C:\Program Files (x86)\HI-TECH Software\PICC-18\9.80\include\pic18f67k22.h"
   417  0000                     IPR2 equ 0FA2h ;# 
   418                           # 4333 "C:\Program Files (x86)\HI-TECH Software\PICC-18\9.80\include\pic18f67k22.h"
   419  0000                     PIE3 equ 0FA3h ;# 
   420                           # 4379 "C:\Program Files (x86)\HI-TECH Software\PICC-18\9.80\include\pic18f67k22.h"
   421  0000                     PIR3 equ 0FA4h ;# 
   422                           # 4406 "C:\Program Files (x86)\HI-TECH Software\PICC-18\9.80\include\pic18f67k22.h"
   423  0000                     IPR3 equ 0FA5h ;# 
   424                           # 4433 "C:\Program Files (x86)\HI-TECH Software\PICC-18\9.80\include\pic18f67k22.h"
   425  0000                     PIR6 equ 0FA6h ;# 
   426                           # 4449 "C:\Program Files (x86)\HI-TECH Software\PICC-18\9.80\include\pic18f67k22.h"
   427  0000                     PSPCON equ 0FA7h ;# 
   428                           # 4465 "C:\Program Files (x86)\HI-TECH Software\PICC-18\9.80\include\pic18f67k22.h"
   429  0000                     HLVDCON equ 0FA8h ;# 
   430                           # 4487 "C:\Program Files (x86)\HI-TECH Software\PICC-18\9.80\include\pic18f67k22.h"
   431  0000                     IPR6 equ 0FA9h ;# 
   432                           # 4503 "C:\Program Files (x86)\HI-TECH Software\PICC-18\9.80\include\pic18f67k22.h"
   433  0000                     T1GCON equ 0FAAh ;# 
   434                           # 4539 "C:\Program Files (x86)\HI-TECH Software\PICC-18\9.80\include\pic18f67k22.h"
   435  0000                     RCSTA1 equ 0FABh ;# 
   436                           # 4544 "C:\Program Files (x86)\HI-TECH Software\PICC-18\9.80\include\pic18f67k22.h"
   437  0000                     RCSTA equ 0FABh ;# 
   438                           # 4642 "C:\Program Files (x86)\HI-TECH Software\PICC-18\9.80\include\pic18f67k22.h"
   439  0000                     TXSTA1 equ 0FACh ;# 
   440                           # 4647 "C:\Program Files (x86)\HI-TECH Software\PICC-18\9.80\include\pic18f67k22.h"
   441  0000                     TXSTA equ 0FACh ;# 
   442                           # 4725 "C:\Program Files (x86)\HI-TECH Software\PICC-18\9.80\include\pic18f67k22.h"
   443  0000                     TXREG1 equ 0FADh ;# 
   444                           # 4730 "C:\Program Files (x86)\HI-TECH Software\PICC-18\9.80\include\pic18f67k22.h"
   445  0000                     TXREG equ 0FADh ;# 
   446                           # 4748 "C:\Program Files (x86)\HI-TECH Software\PICC-18\9.80\include\pic18f67k22.h"
   447  0000                     RCREG1 equ 0FAEh ;# 
   448                           # 4753 "C:\Program Files (x86)\HI-TECH Software\PICC-18\9.80\include\pic18f67k22.h"
   449  0000                     RCREG equ 0FAEh ;# 
   450                           # 4771 "C:\Program Files (x86)\HI-TECH Software\PICC-18\9.80\include\pic18f67k22.h"
   451  0000                     SPBRG1 equ 0FAFh ;# 
   452                           # 4776 "C:\Program Files (x86)\HI-TECH Software\PICC-18\9.80\include\pic18f67k22.h"
   453  0000                     SPBRG equ 0FAFh ;# 
   454                           # 4794 "C:\Program Files (x86)\HI-TECH Software\PICC-18\9.80\include\pic18f67k22.h"
   455  0000                     T3GCON equ 0FB0h ;# 
   456                           # 4830 "C:\Program Files (x86)\HI-TECH Software\PICC-18\9.80\include\pic18f67k22.h"
   457  0000                     T3CON equ 0FB1h ;# 
   458                           # 4870 "C:\Program Files (x86)\HI-TECH Software\PICC-18\9.80\include\pic18f67k22.h"
   459  0000                     TMR3 equ 0FB2h ;# 
   460                           # 4876 "C:\Program Files (x86)\HI-TECH Software\PICC-18\9.80\include\pic18f67k22.h"
   461  0000                     TMR3L equ 0FB2h ;# 
   462                           # 4888 "C:\Program Files (x86)\HI-TECH Software\PICC-18\9.80\include\pic18f67k22.h"
   463  0000                     TMR3H equ 0FB3h ;# 
   464                           # 4900 "C:\Program Files (x86)\HI-TECH Software\PICC-18\9.80\include\pic18f67k22.h"
   465  0000                     CMSTAT equ 0FB4h ;# 
   466                           # 4905 "C:\Program Files (x86)\HI-TECH Software\PICC-18\9.80\include\pic18f67k22.h"
   467  0000                     CMSTATUS equ 0FB4h ;# 
   468                           # 4953 "C:\Program Files (x86)\HI-TECH Software\PICC-18\9.80\include\pic18f67k22.h"
   469  0000                     CVRCON equ 0FB5h ;# 
   470                           # 4983 "C:\Program Files (x86)\HI-TECH Software\PICC-18\9.80\include\pic18f67k22.h"
   471  0000                     PIE4 equ 0FB6h ;# 
   472                           # 5002 "C:\Program Files (x86)\HI-TECH Software\PICC-18\9.80\include\pic18f67k22.h"
   473  0000                     PIR4 equ 0FB7h ;# 
   474                           # 5021 "C:\Program Files (x86)\HI-TECH Software\PICC-18\9.80\include\pic18f67k22.h"
   475  0000                     IPR4 equ 0FB8h ;# 
   476                           # 5043 "C:\Program Files (x86)\HI-TECH Software\PICC-18\9.80\include\pic18f67k22.h"
   477  0000                     PIE5 equ 0FB9h ;# 
   478                           # 5062 "C:\Program Files (x86)\HI-TECH Software\PICC-18\9.80\include\pic18f67k22.h"
   479  0000                     PIR5 equ 0FBAh ;# 
   480                           # 5081 "C:\Program Files (x86)\HI-TECH Software\PICC-18\9.80\include\pic18f67k22.h"
   481  0000                     CCP1CON equ 0FBBh ;# 
   482                           # 5086 "C:\Program Files (x86)\HI-TECH Software\PICC-18\9.80\include\pic18f67k22.h"
   483  0000                     ECCP1CON equ 0FBBh ;# 
   484                           # 5138 "C:\Program Files (x86)\HI-TECH Software\PICC-18\9.80\include\pic18f67k22.h"
   485  0000                     CCPR1 equ 0FBCh ;# 
   486                           # 5150 "C:\Program Files (x86)\HI-TECH Software\PICC-18\9.80\include\pic18f67k22.h"
   487  0000                     CCPR1L equ 0FBCh ;# 
   488                           # 5162 "C:\Program Files (x86)\HI-TECH Software\PICC-18\9.80\include\pic18f67k22.h"
   489  0000                     CCPR1H equ 0FBDh ;# 
   490                           # 5174 "C:\Program Files (x86)\HI-TECH Software\PICC-18\9.80\include\pic18f67k22.h"
   491  0000                     ECCP1DEL equ 0FBEh ;# 
   492                           # 5179 "C:\Program Files (x86)\HI-TECH Software\PICC-18\9.80\include\pic18f67k22.h"
   493  0000                     PWM1CON equ 0FBEh ;# 
   494                           # 5217 "C:\Program Files (x86)\HI-TECH Software\PICC-18\9.80\include\pic18f67k22.h"
   495  0000                     ECCP1AS equ 0FBFh ;# 
   496                           # 5241 "C:\Program Files (x86)\HI-TECH Software\PICC-18\9.80\include\pic18f67k22.h"
   497  0000                     ADCON2 equ 0FC0h ;# 
   498                           # 5264 "C:\Program Files (x86)\HI-TECH Software\PICC-18\9.80\include\pic18f67k22.h"
   499  0000                     ADCON1 equ 0FC1h ;# 
   500                           # 5301 "C:\Program Files (x86)\HI-TECH Software\PICC-18\9.80\include\pic18f67k22.h"
   501  0000                     ADCON0 equ 0FC2h ;# 
   502                           # 5348 "C:\Program Files (x86)\HI-TECH Software\PICC-18\9.80\include\pic18f67k22.h"
   503  0000                     ADRES equ 0FC3h ;# 
   504                           # 5360 "C:\Program Files (x86)\HI-TECH Software\PICC-18\9.80\include\pic18f67k22.h"
   505  0000                     ADRESL equ 0FC3h ;# 
   506                           # 5372 "C:\Program Files (x86)\HI-TECH Software\PICC-18\9.80\include\pic18f67k22.h"
   507  0000                     ADRESH equ 0FC4h ;# 
   508                           # 5384 "C:\Program Files (x86)\HI-TECH Software\PICC-18\9.80\include\pic18f67k22.h"
   509  0000                     SSP1CON2 equ 0FC5h ;# 
   510                           # 5389 "C:\Program Files (x86)\HI-TECH Software\PICC-18\9.80\include\pic18f67k22.h"
   511  0000                     SSPCON2 equ 0FC5h ;# 
   512                           # 5539 "C:\Program Files (x86)\HI-TECH Software\PICC-18\9.80\include\pic18f67k22.h"
   513  0000                     SSP1CON1 equ 0FC6h ;# 
   514                           # 5544 "C:\Program Files (x86)\HI-TECH Software\PICC-18\9.80\include\pic18f67k22.h"
   515  0000                     SSPCON1 equ 0FC6h ;# 
   516                           # 5644 "C:\Program Files (x86)\HI-TECH Software\PICC-18\9.80\include\pic18f67k22.h"
   517  0000                     SSP1STAT equ 0FC7h ;# 
   518                           # 5649 "C:\Program Files (x86)\HI-TECH Software\PICC-18\9.80\include\pic18f67k22.h"
   519  0000                     SSPSTAT equ 0FC7h ;# 
   520                           # 5909 "C:\Program Files (x86)\HI-TECH Software\PICC-18\9.80\include\pic18f67k22.h"
   521  0000                     SSP1ADD equ 0FC8h ;# 
   522                           # 5914 "C:\Program Files (x86)\HI-TECH Software\PICC-18\9.80\include\pic18f67k22.h"
   523  0000                     SSPADD equ 0FC8h ;# 
   524                           # 6056 "C:\Program Files (x86)\HI-TECH Software\PICC-18\9.80\include\pic18f67k22.h"
   525  0000                     SSP1MSK equ 0FC8h ;# 
   526                           # 6075 "C:\Program Files (x86)\HI-TECH Software\PICC-18\9.80\include\pic18f67k22.h"
   527  0000                     SSP1BUF equ 0FC9h ;# 
   528                           # 6080 "C:\Program Files (x86)\HI-TECH Software\PICC-18\9.80\include\pic18f67k22.h"
   529  0000                     SSPBUF equ 0FC9h ;# 
   530                           # 6098 "C:\Program Files (x86)\HI-TECH Software\PICC-18\9.80\include\pic18f67k22.h"
   531  0000                     T2CON equ 0FCAh ;# 
   532                           # 6121 "C:\Program Files (x86)\HI-TECH Software\PICC-18\9.80\include\pic18f67k22.h"
   533  0000                     PR2 equ 0FCBh ;# 
   534                           # 6126 "C:\Program Files (x86)\HI-TECH Software\PICC-18\9.80\include\pic18f67k22.h"
   535  0000                     MEMCON equ 0FCBh ;# 
   536                           # 6144 "C:\Program Files (x86)\HI-TECH Software\PICC-18\9.80\include\pic18f67k22.h"
   537  0000                     TMR2 equ 0FCCh ;# 
   538                           # 6156 "C:\Program Files (x86)\HI-TECH Software\PICC-18\9.80\include\pic18f67k22.h"
   539  0000                     T1CON equ 0FCDh ;# 
   540                           # 6192 "C:\Program Files (x86)\HI-TECH Software\PICC-18\9.80\include\pic18f67k22.h"
   541  0000                     TMR1 equ 0FCEh ;# 
   542                           # 6204 "C:\Program Files (x86)\HI-TECH Software\PICC-18\9.80\include\pic18f67k22.h"
   543  0000                     TMR1L equ 0FCEh ;# 
   544                           # 6216 "C:\Program Files (x86)\HI-TECH Software\PICC-18\9.80\include\pic18f67k22.h"
   545  0000                     TMR1H equ 0FCFh ;# 
   546                           # 6228 "C:\Program Files (x86)\HI-TECH Software\PICC-18\9.80\include\pic18f67k22.h"
   547  0000                     RCON equ 0FD0h ;# 
   548                           # 6278 "C:\Program Files (x86)\HI-TECH Software\PICC-18\9.80\include\pic18f67k22.h"
   549  0000                     WDTCON equ 0FD1h ;# 
   550                           # 6300 "C:\Program Files (x86)\HI-TECH Software\PICC-18\9.80\include\pic18f67k22.h"
   551  0000                     IPR5 equ 0FD2h ;# 
   552                           # 6334 "C:\Program Files (x86)\HI-TECH Software\PICC-18\9.80\include\pic18f67k22.h"
   553  0000                     OSCCON equ 0FD3h ;# 
   554                           # 6358 "C:\Program Files (x86)\HI-TECH Software\PICC-18\9.80\include\pic18f67k22.h"
   555  0000                     SPBRGH1 equ 0FD4h ;# 
   556                           # 6370 "C:\Program Files (x86)\HI-TECH Software\PICC-18\9.80\include\pic18f67k22.h"
   557  0000                     T0CON equ 0FD5h ;# 
   558                           # 6392 "C:\Program Files (x86)\HI-TECH Software\PICC-18\9.80\include\pic18f67k22.h"
   559  0000                     TMR0 equ 0FD6h ;# 
   560                           # 6404 "C:\Program Files (x86)\HI-TECH Software\PICC-18\9.80\include\pic18f67k22.h"
   561  0000                     TMR0L equ 0FD6h ;# 
   562                           # 6416 "C:\Program Files (x86)\HI-TECH Software\PICC-18\9.80\include\pic18f67k22.h"
   563  0000                     TMR0H equ 0FD7h ;# 
   564                           # 6428 "C:\Program Files (x86)\HI-TECH Software\PICC-18\9.80\include\pic18f67k22.h"
   565  0000                     STATUS equ 0FD8h ;# 
   566                           # 6459 "C:\Program Files (x86)\HI-TECH Software\PICC-18\9.80\include\pic18f67k22.h"
   567  0000                     FSR2 equ 0FD9h ;# 
   568                           # 6471 "C:\Program Files (x86)\HI-TECH Software\PICC-18\9.80\include\pic18f67k22.h"
   569  0000                     FSR2L equ 0FD9h ;# 
   570                           # 6483 "C:\Program Files (x86)\HI-TECH Software\PICC-18\9.80\include\pic18f67k22.h"
   571  0000                     FSR2H equ 0FDAh ;# 
   572                           # 6495 "C:\Program Files (x86)\HI-TECH Software\PICC-18\9.80\include\pic18f67k22.h"
   573  0000                     PLUSW2 equ 0FDBh ;# 
   574                           # 6507 "C:\Program Files (x86)\HI-TECH Software\PICC-18\9.80\include\pic18f67k22.h"
   575  0000                     PREINC2 equ 0FDCh ;# 
   576                           # 6519 "C:\Program Files (x86)\HI-TECH Software\PICC-18\9.80\include\pic18f67k22.h"
   577  0000                     POSTDEC2 equ 0FDDh ;# 
   578                           # 6531 "C:\Program Files (x86)\HI-TECH Software\PICC-18\9.80\include\pic18f67k22.h"
   579  0000                     POSTINC2 equ 0FDEh ;# 
   580                           # 6543 "C:\Program Files (x86)\HI-TECH Software\PICC-18\9.80\include\pic18f67k22.h"
   581  0000                     INDF2 equ 0FDFh ;# 
   582                           # 6555 "C:\Program Files (x86)\HI-TECH Software\PICC-18\9.80\include\pic18f67k22.h"
   583  0000                     BSR equ 0FE0h ;# 
   584                           # 6567 "C:\Program Files (x86)\HI-TECH Software\PICC-18\9.80\include\pic18f67k22.h"
   585  0000                     FSR1 equ 0FE1h ;# 
   586                           # 6579 "C:\Program Files (x86)\HI-TECH Software\PICC-18\9.80\include\pic18f67k22.h"
   587  0000                     FSR1L equ 0FE1h ;# 
   588                           # 6591 "C:\Program Files (x86)\HI-TECH Software\PICC-18\9.80\include\pic18f67k22.h"
   589  0000                     FSR1H equ 0FE2h ;# 
   590                           # 6603 "C:\Program Files (x86)\HI-TECH Software\PICC-18\9.80\include\pic18f67k22.h"
   591  0000                     PLUSW1 equ 0FE3h ;# 
   592                           # 6615 "C:\Program Files (x86)\HI-TECH Software\PICC-18\9.80\include\pic18f67k22.h"
   593  0000                     PREINC1 equ 0FE4h ;# 
   594                           # 6627 "C:\Program Files (x86)\HI-TECH Software\PICC-18\9.80\include\pic18f67k22.h"
   595  0000                     POSTDEC1 equ 0FE5h ;# 
   596                           # 6639 "C:\Program Files (x86)\HI-TECH Software\PICC-18\9.80\include\pic18f67k22.h"
   597  0000                     POSTINC1 equ 0FE6h ;# 
   598                           # 6651 "C:\Program Files (x86)\HI-TECH Software\PICC-18\9.80\include\pic18f67k22.h"
   599  0000                     INDF1 equ 0FE7h ;# 
   600                           # 6663 "C:\Program Files (x86)\HI-TECH Software\PICC-18\9.80\include\pic18f67k22.h"
   601  0000                     WREG equ 0FE8h ;# 
   602                           # 6675 "C:\Program Files (x86)\HI-TECH Software\PICC-18\9.80\include\pic18f67k22.h"
   603  0000                     FSR0 equ 0FE9h ;# 
   604                           # 6687 "C:\Program Files (x86)\HI-TECH Software\PICC-18\9.80\include\pic18f67k22.h"
   605  0000                     FSR0L equ 0FE9h ;# 
   606                           # 6699 "C:\Program Files (x86)\HI-TECH Software\PICC-18\9.80\include\pic18f67k22.h"
   607  0000                     FSR0H equ 0FEAh ;# 
   608                           # 6711 "C:\Program Files (x86)\HI-TECH Software\PICC-18\9.80\include\pic18f67k22.h"
   609  0000                     PLUSW0 equ 0FEBh ;# 
   610                           # 6723 "C:\Program Files (x86)\HI-TECH Software\PICC-18\9.80\include\pic18f67k22.h"
   611  0000                     PREINC0 equ 0FECh ;# 
   612                           # 6735 "C:\Program Files (x86)\HI-TECH Software\PICC-18\9.80\include\pic18f67k22.h"
   613  0000                     POSTDEC0 equ 0FEDh ;# 
   614                           # 6747 "C:\Program Files (x86)\HI-TECH Software\PICC-18\9.80\include\pic18f67k22.h"
   615  0000                     POSTINC0 equ 0FEEh ;# 
   616                           # 6759 "C:\Program Files (x86)\HI-TECH Software\PICC-18\9.80\include\pic18f67k22.h"
   617  0000                     INDF0 equ 0FEFh ;# 
   618                           # 6771 "C:\Program Files (x86)\HI-TECH Software\PICC-18\9.80\include\pic18f67k22.h"
   619  0000                     INTCON3 equ 0FF0h ;# 
   620                           # 6800 "C:\Program Files (x86)\HI-TECH Software\PICC-18\9.80\include\pic18f67k22.h"
   621  0000                     INTCON2 equ 0FF1h ;# 
   622                           # 6830 "C:\Program Files (x86)\HI-TECH Software\PICC-18\9.80\include\pic18f67k22.h"
   623  0000                     INTCON equ 0FF2h ;# 
   624                           # 6879 "C:\Program Files (x86)\HI-TECH Software\PICC-18\9.80\include\pic18f67k22.h"
   625  0000                     PROD equ 0FF3h ;# 
   626                           # 6891 "C:\Program Files (x86)\HI-TECH Software\PICC-18\9.80\include\pic18f67k22.h"
   627  0000                     PRODL equ 0FF3h ;# 
   628                           # 6903 "C:\Program Files (x86)\HI-TECH Software\PICC-18\9.80\include\pic18f67k22.h"
   629  0000                     PRODH equ 0FF4h ;# 
   630                           # 6915 "C:\Program Files (x86)\HI-TECH Software\PICC-18\9.80\include\pic18f67k22.h"
   631  0000                     TABLAT equ 0FF5h ;# 
   632                           # 6927 "C:\Program Files (x86)\HI-TECH Software\PICC-18\9.80\include\pic18f67k22.h"
   633  0000                     TBLPTR equ 0FF6h ;# 
   634                           # 6940 "C:\Program Files (x86)\HI-TECH Software\PICC-18\9.80\include\pic18f67k22.h"
   635  0000                     TBLPTRL equ 0FF6h ;# 
   636                           # 6952 "C:\Program Files (x86)\HI-TECH Software\PICC-18\9.80\include\pic18f67k22.h"
   637  0000                     TBLPTRH equ 0FF7h ;# 
   638                           # 6964 "C:\Program Files (x86)\HI-TECH Software\PICC-18\9.80\include\pic18f67k22.h"
   639  0000                     TBLPTRU equ 0FF8h ;# 
   640                           # 6977 "C:\Program Files (x86)\HI-TECH Software\PICC-18\9.80\include\pic18f67k22.h"
   641  0000                     PCLAT equ 0FF9h ;# 
   642                           # 6982 "C:\Program Files (x86)\HI-TECH Software\PICC-18\9.80\include\pic18f67k22.h"
   643  0000                     PC equ 0FF9h ;# 
   644                           # 7000 "C:\Program Files (x86)\HI-TECH Software\PICC-18\9.80\include\pic18f67k22.h"
   645  0000                     PCL equ 0FF9h ;# 
   646                           # 7012 "C:\Program Files (x86)\HI-TECH Software\PICC-18\9.80\include\pic18f67k22.h"
   647  0000                     PCLATH equ 0FFAh ;# 
   648                           # 7024 "C:\Program Files (x86)\HI-TECH Software\PICC-18\9.80\include\pic18f67k22.h"
   649  0000                     PCLATU equ 0FFBh ;# 
   650                           # 7036 "C:\Program Files (x86)\HI-TECH Software\PICC-18\9.80\include\pic18f67k22.h"
   651  0000                     STKPTR equ 0FFCh ;# 
   652                           # 7060 "C:\Program Files (x86)\HI-TECH Software\PICC-18\9.80\include\pic18f67k22.h"
   653  0000                     TOS equ 0FFDh ;# 
   654                           # 7072 "C:\Program Files (x86)\HI-TECH Software\PICC-18\9.80\include\pic18f67k22.h"
   655  0000                     TOSL equ 0FFDh ;# 
   656                           # 7084 "C:\Program Files (x86)\HI-TECH Software\PICC-18\9.80\include\pic18f67k22.h"
   657  0000                     TOSH equ 0FFEh ;# 
   658                           # 7096 "C:\Program Files (x86)\HI-TECH Software\PICC-18\9.80\include\pic18f67k22.h"
   659  0000                     TOSU equ 0FFFh ;# 
   660                           # 39 "C:\Users\THORAXIUM\Dropbox\EaglePCB\projects\Orbit\Firmware\Bootloader\BootLoader.
                                 c"
   661                           psect intcode ;# 
   662                           # 40 "C:\Users\THORAXIUM\Dropbox\EaglePCB\projects\Orbit\Firmware\Bootloader\BootLoader.
                                 c"
   663  000008  EF04 F008          goto 0x1000+8 ;# 
   664                           # 41 "C:\Users\THORAXIUM\Dropbox\EaglePCB\projects\Orbit\Firmware\Bootloader\BootLoader.
                                 c"
   665                           psect intcodelo ;# 
   666                           # 42 "C:\Users\THORAXIUM\Dropbox\EaglePCB\projects\Orbit\Firmware\Bootloader\BootLoader.
                                 c"
   667  000018  EF0C F008          goto 0x1000+0x18 ;# 
   668                           	FNCALL	_main,_Set_Pins
   669                           	FNCALL	_main,_Setup_UART
   670                           	FNCALL	_main,_Delay_ms
   671                           	FNCALL	_main,_getc
   672                           	FNCALL	_main,_putc
   673                           	FNCALL	_main,_gethex
   674                           	FNCALL	_gethex,_getc
   675                           	FNROOT	_main
   676                           	global	_ANCON0
   677  0000                     _ANCON0	set	0xF25
   678                           	global	_ANCON1
   679  0000                     _ANCON1	set	0xF24
   680                           	global	_ANCON2
   681  0000                     _ANCON2	set	0xF23
   682                           	global	_BAUDCON1bits
   683  0000                     _BAUDCON1bits	set	0xF65
   684                           	global	_EECON1bits
   685  0000                     _EECON1bits	set	0xF7F
   686                           	global	_EECON2
   687  0000                     _EECON2	set	0xF7E
   688                           	global	_INTCONbits
   689  0000                     _INTCONbits	set	0xFF2
   690                           	global	_LATA
   691  0000                     _LATA	set	0xF89
   692                           	global	_LATB
   693  0000                     _LATB	set	0xF8A
   694                           	global	_LATC
   695  0000                     _LATC	set	0xF8B
   696                           	global	_LATD
   697  0000                     _LATD	set	0xF8C
   698                           	global	_LATE
   699  0000                     _LATE	set	0xF8D
   700                           	global	_LATF
   701  0000                     _LATF	set	0xF8E
   702                           	global	_LATG
   703  0000                     _LATG	set	0xF8F
   704                           	global	_OSCCONbits
   705  0000                     _OSCCONbits	set	0xFD3
   706                           	global	_PORTCbits
   707  0000                     _PORTCbits	set	0xF82
   708                           	global	_PORTFbits
   709  0000                     _PORTFbits	set	0xF85
   710                           	global	_RCREG
   711  0000                     _RCREG	set	0xFAE
   712                           	global	_RCSTA1bits
   713  0000                     _RCSTA1bits	set	0xFAB
   714                           	global	_SPBRG1
   715  0000                     _SPBRG1	set	0xFAF
   716                           	global	_SPBRGH1
   717  0000                     _SPBRGH1	set	0xFD4
   718                           	global	_TABLAT
   719  0000                     _TABLAT	set	0xFF5
   720                           	global	_TBLPTRH
   721  0000                     _TBLPTRH	set	0xFF7
   722                           	global	_TBLPTRL
   723  0000                     _TBLPTRL	set	0xFF6
   724                           	global	_TBLPTRU
   725  0000                     _TBLPTRU	set	0xFF8
   726                           	global	_TRISA
   727  0000                     _TRISA	set	0xF92
   728                           	global	_TRISAbits
   729  0000                     _TRISAbits	set	0xF92
   730                           	global	_TRISB
   731  0000                     _TRISB	set	0xF93
   732                           	global	_TRISBbits
   733  0000                     _TRISBbits	set	0xF93
   734                           	global	_TRISC
   735  0000                     _TRISC	set	0xF94
   736                           	global	_TRISCbits
   737  0000                     _TRISCbits	set	0xF94
   738                           	global	_TRISD
   739  0000                     _TRISD	set	0xF95
   740                           	global	_TRISE
   741  0000                     _TRISE	set	0xF96
   742                           	global	_TRISF
   743  0000                     _TRISF	set	0xF97
   744                           	global	_TRISG
   745  0000                     _TRISG	set	0xF98
   746                           	global	_TXREG
   747  0000                     _TXREG	set	0xFAD
   748                           	global	_TXSTA1bits
   749  0000                     _TXSTA1bits	set	0xFAC
   750                           	global	_ADON
   751  0000                     _ADON	set	0x7E10
   752                           	global	_PLLEN
   753  0000                     _PLLEN	set	0x7CDE
   754                           	global	_RBPU
   755  0000                     _RBPU	set	0x7F8F
   756                           	global	_RC1IE
   757  0000                     _RC1IE	set	0x7CED
   758                           	global	_RC1IF
   759  0000                     _RC1IF	set	0x7CF5
   760                           	global	_TX1IE
   761  0000                     _TX1IE	set	0x7CEC
   762                           psect	text0,class=CODE,space=0,reloc=2
   763                           global __ptext0
   764  000020                     __ptext0:
   765                           ; #config settings
   766                           global __CFG_INTOSCSEL$HIGH
   767  0000                     __CFG_INTOSCSEL$HIGH equ 0x0
   768                           global __CFG_SOSCSEL$DIG
   769  0000                     __CFG_SOSCSEL$DIG equ 0x0
   770                           global __CFG_XINST$OFF
   771  0000                     __CFG_XINST$OFF equ 0x0
   772                           global __CFG_RETEN$OFF
   773  0000                     __CFG_RETEN$OFF equ 0x0
   774                           global __CFG_FOSC$INTIO2
   775  0000                     __CFG_FOSC$INTIO2 equ 0x0
   776                           global __CFG_PLLCFG$ON
   777  0000                     __CFG_PLLCFG$ON equ 0x0
   778                           global __CFG_BOREN$OFF
   779  0000                     __CFG_BOREN$OFF equ 0x0
   780                           global __CFG_WDTEN$OFF
   781  0000                     __CFG_WDTEN$OFF equ 0x0
   782                           global __CFG_RTCOSC$INTOSCREF
   783  0000                     __CFG_RTCOSC$INTOSCREF equ 0x0
   784                           global __CFG_CCP2MX$PORTBE
   785  0000                     __CFG_CCP2MX$PORTBE equ 0x0
   786                           global __CFG_MCLRE$ON
   787  0000                     __CFG_MCLRE$ON equ 0x0
   788                           	file	"C:\Users\THORAX~1\AppData\Local\Temp\s6i0."
   789                           	line	#
   790                           psect	cinit,class=CODE,delta=1,reloc=2
   791                           global __pcinit
   792  0005A0                     __pcinit:
   793                           global start_initialization
   794  0005A0                     start_initialization:
   795                           
   796                           psect cinit,class=CODE,delta=1
   797                           global end_of_initialization
   798                           
   799                           ;End of C runtime variable initialization code
   800                           
   801  0005A0                     end_of_initialization:
   802  0005A0  0100               movlb 0
   803  0005A2  EF10  F000         goto _main	;jump to C main() function
   804                           psect	cstackBANK0,class=BANK0,space=1
   805                           global __pcstackBANK0
   806  000060                     __pcstackBANK0:
   807                           	global	main@Buffer
   808  000060                     main@Buffer:	; 128 bytes @ 0x0
   809  000060                     	ds   128
   810                           	global	main@ab
   811  0000E0                     main@ab:	; 1 bytes @ 0x80
   812  0000E0                     	ds   1
   813                           	global	main@CheckSum
   814  0000E1                     main@CheckSum:	; 1 bytes @ 0x81
   815  0000E1                     	ds   1
   816                           	global	main@inp
   817  0000E2                     main@inp:	; 1 bytes @ 0x82
   818  0000E2                     	ds   1
   819                           	global	main@tbuf
   820  0000E3                     main@tbuf:	; 1 bytes @ 0x83
   821  0000E3                     	ds   1
   822                           	global	main@cc
   823  0000E4                     main@cc:	; 1 bytes @ 0x84
   824  0000E4                     	ds   1
   825                           	global	main@idx
   826  0000E5                     main@idx:	; 1 bytes @ 0x85
   827  0000E5                     	ds   1
   828                           	global	main@BlockAddress
   829  0000E6                     main@BlockAddress:	; 4 bytes @ 0x86
   830  0000E6                     	ds   4
   831                           	global	main@temp
   832  0000EA                     main@temp:	; 1 bytes @ 0x8A
   833  0000EA                     	ds   1
   834                           psect	cstackCOMRAM,class=COMRAM,space=1
   835                           global __pcstackCOMRAM
   836  000001                     __pcstackCOMRAM:
   837                           	global	?_Set_Pins
   838  000001                     ?_Set_Pins:	; 0 bytes @ 0x0
   839                           	global	??_Set_Pins
   840  000001                     ??_Set_Pins:	; 0 bytes @ 0x0
   841                           	global	?_Setup_UART
   842  000001                     ?_Setup_UART:	; 0 bytes @ 0x0
   843                           	global	??_Setup_UART
   844  000001                     ??_Setup_UART:	; 0 bytes @ 0x0
   845                           	global	?_Delay_ms
   846  000001                     ?_Delay_ms:	; 0 bytes @ 0x0
   847                           	global	??_getc
   848  000001                     ??_getc:	; 0 bytes @ 0x0
   849                           	global	?_putc
   850  000001                     ?_putc:	; 0 bytes @ 0x0
   851                           	global	?_main
   852  000001                     ?_main:	; 0 bytes @ 0x0
   853                           	global	?_getc
   854  000001                     ?_getc:	; 1 bytes @ 0x0
   855                           	global	?_gethex
   856  000001                     ?_gethex:	; 1 bytes @ 0x0
   857                           	global	putc@dat
   858  000001                     putc@dat:	; 1 bytes @ 0x0
   859                           	global	Delay_ms@ms
   860  000001                     Delay_ms@ms:	; 2 bytes @ 0x0
   861  000001                     	ds   1
   862                           	global	??_putc
   863  000002                     ??_putc:	; 0 bytes @ 0x1
   864                           	global	getc@temp
   865  000002                     getc@temp:	; 1 bytes @ 0x1
   866  000002                     	ds   1
   867                           	global	??_Delay_ms
   868  000003                     ??_Delay_ms:	; 0 bytes @ 0x2
   869                           	global	??_gethex
   870  000003                     ??_gethex:	; 0 bytes @ 0x2
   871                           	global	gethex@temp
   872  000003                     gethex@temp:	; 1 bytes @ 0x2
   873  000003                     	ds   1
   874                           	global	Delay_ms@idx
   875  000004                     Delay_ms@idx:	; 2 bytes @ 0x3
   876  000004                     	ds   2
   877                           	global	Delay_ms@temp
   878  000006                     Delay_ms@temp:	; 2 bytes @ 0x5
   879  000006                     	ds   2
   880                           	global	??_main
   881  000008                     ??_main:	; 0 bytes @ 0x7
   882  000008                     	ds   1
   883                           ;!
   884                           ;!Data Sizes:
   885                           ;!    Strings     0
   886                           ;!    Constant    0
   887                           ;!    Data        0
   888                           ;!    BSS         0
   889                           ;!    Persistent  0
   890                           ;!    Stack       0
   891                           ;!
   892                           ;!Auto Spaces:
   893                           ;!    Space          Size  Autos    Used
   894                           ;!    COMRAM           95      8       8
   895                           ;!    BANK0           160    139     139
   896                           ;!    BANK1           256      0       0
   897                           ;!    BANK2           256      0       0
   898                           ;!    BANK3           256      0       0
   899                           ;!    BANK4           256      0       0
   900                           ;!    BANK5           256      0       0
   901                           ;!    BANK6           256      0       0
   902                           ;!    BANK7           256      0       0
   903                           ;!    BANK8           256      0       0
   904                           ;!    BANK9           256      0       0
   905                           ;!    BANK10          256      0       0
   906                           ;!    BANK11          256      0       0
   907                           ;!    BANK12          256      0       0
   908                           ;!    BANK13          256      0       0
   909                           ;!    BANK14          256      0       0
   910                           ;!    BANK15           22      0       0
   911                           
   912                           ;!
   913                           ;!Pointer List with Targets:
   914                           ;!
   915                           ;!    None.
   916                           
   917                           
   918                           ;!
   919                           ;!Critical Paths under _main in COMRAM
   920                           ;!
   921                           ;!    _main->_Delay_ms
   922                           ;!    _gethex->_getc
   923                           ;!
   924                           ;!Critical Paths under _main in BANK0
   925                           ;!
   926                           ;!    None.
   927                           ;!
   928                           ;!Critical Paths under _main in BANK1
   929                           ;!
   930                           ;!    None.
   931                           ;!
   932                           ;!Critical Paths under _main in BANK2
   933                           ;!
   934                           ;!    None.
   935                           ;!
   936                           ;!Critical Paths under _main in BANK3
   937                           ;!
   938                           ;!    None.
   939                           ;!
   940                           ;!Critical Paths under _main in BANK4
   941                           ;!
   942                           ;!    None.
   943                           ;!
   944                           ;!Critical Paths under _main in BANK5
   945                           ;!
   946                           ;!    None.
   947                           ;!
   948                           ;!Critical Paths under _main in BANK6
   949                           ;!
   950                           ;!    None.
   951                           ;!
   952                           ;!Critical Paths under _main in BANK7
   953                           ;!
   954                           ;!    None.
   955                           ;!
   956                           ;!Critical Paths under _main in BANK8
   957                           ;!
   958                           ;!    None.
   959                           ;!
   960                           ;!Critical Paths under _main in BANK9
   961                           ;!
   962                           ;!    None.
   963                           ;!
   964                           ;!Critical Paths under _main in BANK10
   965                           ;!
   966                           ;!    None.
   967                           ;!
   968                           ;!Critical Paths under _main in BANK11
   969                           ;!
   970                           ;!    None.
   971                           ;!
   972                           ;!Critical Paths under _main in BANK12
   973                           ;!
   974                           ;!    None.
   975                           ;!
   976                           ;!Critical Paths under _main in BANK13
   977                           ;!
   978                           ;!    None.
   979                           ;!
   980                           ;!Critical Paths under _main in BANK14
   981                           ;!
   982                           ;!    None.
   983                           ;!
   984                           ;!Critical Paths under _main in BANK15
   985                           ;!
   986                           ;!    None.
   987                           
   988 ;;
   989 ;;Main: autosize = 0, tempsize = 1, incstack = 0, save=0
   990 ;;
   991                           
   992                           ;!
   993                           ;!Call Graph Tables:
   994                           ;!
   995                           ;! ---------------------------------------------------------------------------------
   996                           ;! (Depth) Function   	        Calls       Base Space   Used Autos Params    Refs
   997                           ;! ---------------------------------------------------------------------------------
   998                           ;! (0) _main                                               142   142      0    1195
   999                           ;!                                              7 COMRAM     1     1      0
  1000                           ;!                                              0 BANK0    139   139      0
  1001                           ;!                           _Set_Pins
  1002                           ;!                         _Setup_UART
  1003                           ;!                           _Delay_ms
  1004                           ;!                               _getc
  1005                           ;!                               _putc
  1006                           ;!                             _gethex
  1007                           ;! ---------------------------------------------------------------------------------
  1008                           ;! (1) _Set_Pins                                             0     0      0       0
  1009                           ;! ---------------------------------------------------------------------------------
  1010                           ;! (1) _Setup_UART                                           0     0      0       0
  1011                           ;! ---------------------------------------------------------------------------------
  1012                           ;! (1) _Delay_ms                                             7     5      2      92
  1013                           ;!                                              0 COMRAM     7     5      2
  1014                           ;! ---------------------------------------------------------------------------------
  1015                           ;! (1) _putc                                                 1     0      1      22
  1016                           ;!                                              0 COMRAM     1     0      1
  1017                           ;! ---------------------------------------------------------------------------------
  1018                           ;! (1) _gethex                                               1     1      0     184
  1019                           ;!                                              2 COMRAM     1     1      0
  1020                           ;!                               _getc
  1021                           ;! ---------------------------------------------------------------------------------
  1022                           ;! (2) _getc                                                 2     2      0      26
  1023                           ;!                                              0 COMRAM     2     2      0
  1024                           ;! ---------------------------------------------------------------------------------
  1025                           ;! Estimated maximum stack depth 2
  1026                           ;! ---------------------------------------------------------------------------------
  1027                           ;!
  1028                           ;! Call Graph Graphs:
  1029                           ;!
  1030                           ;! _main (ROOT)
  1031                           ;!   _Set_Pins
  1032                           ;!   _Setup_UART
  1033                           ;!   _Delay_ms
  1034                           ;!   _getc
  1035                           ;!   _putc
  1036                           ;!   _gethex
  1037                           ;!     _getc
  1038                           ;!
  1039                           
  1040                           ;! Address spaces:
  1041                           
  1042                           ;!Name               Size   Autos  Total    Cost      Usage
  1043                           ;!BITCOMRAM           5F      0       0       0        0.0%
  1044                           ;!EEDATA             400      0       0       0        0.0%
  1045                           ;!NULL                 0      0       0       0        0.0%
  1046                           ;!CODE                 0      0       0       0        0.0%
  1047                           ;!COMRAM              5F      8       8       1        8.4%
  1048                           ;!STACK                0      0       2       2        0.0%
  1049                           ;!DATA                 0      0       0       3        0.0%
  1050                           ;!BITBANK0            A0      0       0       4        0.0%
  1051                           ;!BANK0               A0     8B      8B       5       86.9%
  1052                           ;!BITBANK1           100      0       0       6        0.0%
  1053                           ;!BANK1              100      0       0       7        0.0%
  1054                           ;!BITBANK2           100      0       0       8        0.0%
  1055                           ;!BANK2              100      0       0       9        0.0%
  1056                           ;!BITBANK3           100      0       0      10        0.0%
  1057                           ;!BANK3              100      0       0      11        0.0%
  1058                           ;!ABS                  0      0       0      12        0.0%
  1059                           ;!BITBANK4           100      0       0      13        0.0%
  1060                           ;!BANK4              100      0       0      14        0.0%
  1061                           ;!BITBANK5           100      0       0      15        0.0%
  1062                           ;!BANK5              100      0       0      16        0.0%
  1063                           ;!BITBANK6           100      0       0      17        0.0%
  1064                           ;!BANK6              100      0       0      18        0.0%
  1065                           ;!BITBANK7           100      0       0      19        0.0%
  1066                           ;!BANK7              100      0       0      20        0.0%
  1067                           ;!BITBANK8           100      0       0      21        0.0%
  1068                           ;!BANK8              100      0       0      22        0.0%
  1069                           ;!BITBANK9           100      0       0      23        0.0%
  1070                           ;!BANK9              100      0       0      24        0.0%
  1071                           ;!BITBANK10          100      0       0      25        0.0%
  1072                           ;!BANK10             100      0       0      26        0.0%
  1073                           ;!BITBANK11          100      0       0      27        0.0%
  1074                           ;!BANK11             100      0       0      28        0.0%
  1075                           ;!BITBANK12          100      0       0      29        0.0%
  1076                           ;!BANK12             100      0       0      30        0.0%
  1077                           ;!BITBANK13          100      0       0      31        0.0%
  1078                           ;!BANK13             100      0       0      32        0.0%
  1079                           ;!BITBANK14          100      0       0      33        0.0%
  1080                           ;!BANK14             100      0       0      34        0.0%
  1081                           ;!BITBANK15           16      0       0      35        0.0%
  1082                           ;!BANK15              16      0       0      36        0.0%
  1083                           ;!BIGRAM             F15      0       0      37        0.0%
  1084                           ;!BITSFR_1             0      0       0      40        0.0%
  1085                           ;!SFR_1                0      0       0      40        0.0%
  1086                           ;!BITSFR               0      0       0      40        0.0%
  1087                           ;!SFR                  0      0       0      40        0.0%
  1088                           
  1089                           	global	_main
  1090                           
  1091 ;; *************** function _main *****************
  1092 ;; Defined at:
  1093 ;;		line 46 in file "C:\Users\THORAXIUM\Dropbox\EaglePCB\projects\Orbit\Firmware\Bootloader\BootLoader.c"
  1094 ;; Parameters:    Size  Location     Type
  1095 ;;		None
  1096 ;; Auto vars:     Size  Location     Type
  1097 ;;  Buffer        128    0[BANK0 ] unsigned char [128]
  1098 ;;  BlockAddress    4  134[BANK0 ] struct LONG
  1099 ;;  qqq             2    0        unsigned int 
  1100 ;;  temp            1  138[BANK0 ] char 
  1101 ;;  idx             1  133[BANK0 ] unsigned char 
  1102 ;;  cc              1  132[BANK0 ] unsigned char 
  1103 ;;  tbuf            1  131[BANK0 ] unsigned char 
  1104 ;;  inp             1  130[BANK0 ] unsigned char 
  1105 ;;  CheckSum        1  129[BANK0 ] unsigned char 
  1106 ;;  ab              1  128[BANK0 ] unsigned char 
  1107 ;; Return value:  Size  Location     Type
  1108 ;;		None               void
  1109 ;; Registers used:
  1110 ;;		wreg, fsr2l, fsr2h, status,2, status,0, prodl, prodh, cstack
  1111 ;; Tracked objects:
  1112 ;;		On entry : 0/0
  1113 ;;		On exit  : 0/0
  1114 ;;		Unchanged: 0/0
  1115 ;; Data sizes:     COMRAM   BANK0   BANK1   BANK2   BANK3   BANK4   BANK5   BANK6   BANK7   BANK8   BANK9  BANK10  BANK1
       1  BANK12  BANK13  BANK14  BANK15
  1116 ;;      Params:         0       0       0       0       0       0       0       0       0       0       0       0       
       0       0       0       0       0
  1117 ;;      Locals:         0     139       0       0       0       0       0       0       0       0       0       0       
       0       0       0       0       0
  1118 ;;      Temps:          1       0       0       0       0       0       0       0       0       0       0       0       
       0       0       0       0       0
  1119 ;;      Totals:         1     139       0       0       0       0       0       0       0       0       0       0       
       0       0       0       0       0
  1120 ;;Total ram usage:      140 bytes
  1121 ;; Hardware stack levels required when called:    2
  1122 ;; This function calls:
  1123 ;;		_Set_Pins
  1124 ;;		_Setup_UART
  1125 ;;		_Delay_ms
  1126 ;;		_getc
  1127 ;;		_putc
  1128 ;;		_gethex
  1129 ;; This function is called by:
  1130 ;;		Startup code after reset
  1131 ;; This function uses a non-reentrant model
  1132 ;;
  1133                           psect	text0
  1134                           psect	text0
  1135                           	file	"C:\Users\THORAXIUM\Dropbox\EaglePCB\projects\Orbit\Firmware\Bootloader\BootLoader
                                 .c"
  1136                           	line	46
  1137                           	global	__size_of_main
  1138  0000                     	__size_of_main	equ	__end_of_main-_main
  1139                           	
  1140  000020                     _main:
  1141                           	opt	stack 29
  1142                           	line	47
  1143                           	
  1144  000020                     l2292:
  1145                           ;BootLoader.c: 47: unsigned char cc=0;
  1146  000020  6E08               	movwf	(??_main+0+0)&0ffh,c
  1147  000022  0E00               	movlw	low(0)
  1148  000024  0100               	movlb	0	; () banked
  1149  000026  0100               	movlb	0	; () banked
  1150  000028  6FE4               	movwf	((main@cc))&0ffh
  1151  00002A  5008               	movf	(??_main+0+0)&0ffh,c,w
  1152                           	line	48
  1153                           ;BootLoader.c: 48: unsigned char ab=0;
  1154  00002C  6E08               	movwf	(??_main+0+0)&0ffh,c
  1155  00002E  0E00               	movlw	low(0)
  1156  000030  0100               	movlb	0	; () banked
  1157  000032  0100               	movlb	0	; () banked
  1158  000034  6FE0               	movwf	((main@ab))&0ffh
  1159  000036  5008               	movf	(??_main+0+0)&0ffh,c,w
  1160                           	line	60
  1161                           	
  1162  000038                     l2294:
  1163                           ;BootLoader.c: 49: unsigned char Buffer[128];
  1164                           ;BootLoader.c: 50: unsigned char inp;
  1165                           ;BootLoader.c: 51: unsigned char idx;
  1166                           ;BootLoader.c: 52: signed char temp;
  1167                           ;BootLoader.c: 53: unsigned char tbuf;
  1168                           ;BootLoader.c: 54: unsigned char CheckSum;
  1169                           ;BootLoader.c: 55: union LONG BlockAddress;
  1170                           ;BootLoader.c: 57: unsigned int qqq;
  1171                           ;BootLoader.c: 60: OSCCONbits.IRCF=0b111;
  1172  000038  88D3               		bsf	((c:4051)),c, 4+0	;volatile
  1173  00003A  8AD3               	bsf	((c:4051)),c, 4+1	;volatile
  1174  00003C  8CD3               	bsf	((c:4051)),c, 4+2	;volatile
  1175                           
  1176                           	line	63
  1177                           	
  1178  00003E                     l2296:
  1179                           ;BootLoader.c: 63: PLLEN=1;
  1180  00003E  8C9B               	bsf	c:(31966/8),(31966)&7	;volatile
  1181                           	line	65
  1182                           	
  1183  000040                     l2298:
  1184                           ;BootLoader.c: 65: Set_Pins();
  1185  000040  EC63  F002         	call	_Set_Pins	;wreg free
  1186                           	line	66
  1187                           	
  1188  000044                     l2300:
  1189                           ;BootLoader.c: 66: Setup_UART();
  1190  000044  ECB2  F002         	call	_Setup_UART	;wreg free
  1191                           	line	68
  1192                           	
  1193  000048                     l2302:
  1194                           ;BootLoader.c: 68: TRISBbits.TRISB3=0;
  1195  000048  9693               	bcf	((c:3987)),c,3	;volatile
  1196                           	line	69
  1197                           	
  1198  00004A                     l2304:
  1199                           ;BootLoader.c: 69: TRISBbits.TRISB4=1;
  1200  00004A  8893               	bsf	((c:3987)),c,4	;volatile
  1201                           	line	70
  1202                           	
  1203  00004C                     l2306:
  1204                           ;BootLoader.c: 70: TRISBbits.TRISB5=1;
  1205  00004C  8A93               	bsf	((c:3987)),c,5	;volatile
  1206                           	line	71
  1207                           	
  1208  00004E                     l2308:
  1209                           ;BootLoader.c: 71: TRISAbits.TRISA6=1;
  1210  00004E  8C92               	bsf	((c:3986)),c,6	;volatile
  1211                           	line	72
  1212                           	
  1213  000050                     l2310:
  1214                           ;BootLoader.c: 72: TRISAbits.TRISA7=1;
  1215  000050  8E92               	bsf	((c:3986)),c,7	;volatile
  1216                           	line	74
  1217                           	
  1218  000052                     l2312:
  1219                           ;BootLoader.c: 74: Delay_ms(500);
  1220  000052  0E01               	movlw	high(01F4h)
  1221  000054  6E02               	movwf	((c:?_Delay_ms+1)),c
  1222  000056  0EF4               	movlw	low(01F4h)
  1223  000058  6E01               	movwf	((c:?_Delay_ms)),c
  1224  00005A  ECFC  F001         	call	_Delay_ms	;wreg free
  1225                           	line	79
  1226                           	
  1227  00005E                     l2314:
  1228                           ;BootLoader.c: 79: if (PORTFbits.RF1 || PORTCbits.RC0)
  1229                           	
  1230  00005E  B285               	btfsc	((c:3973)),c,1	;volatile
  1231  000060  D001               	goto	u2251
  1232  000062  D001               	goto	u2250
  1233  000064                     u2251:
  1234  000064  D004               	goto	l103
  1235  000066                     u2250:
  1236                           	
  1237  000066                     l2316:
  1238                           	
  1239  000066  A082               	btfss	((c:3970)),c,0	;volatile
  1240  000068  D001               	goto	u2261
  1241  00006A  D001               	goto	u2260
  1242  00006C                     u2261:
  1243  00006C  D002               	goto	l101
  1244  00006E                     u2260:
  1245                           	
  1246  00006E                     l103:
  1247                           	line	81
  1248                           # 81 "C:\Users\THORAXIUM\Dropbox\EaglePCB\projects\Orbit\Firmware\Bootloader\BootLoader.
                                 c"
  1249  00006E  EF00 F008          goto 0x1000 ;# 
  1250                           psect	text0
  1251                           	line	82
  1252                           	
  1253  000072                     l101:
  1254                           	line	84
  1255                           ;BootLoader.c: 82: }
  1256                           ;BootLoader.c: 84: TRISBbits.TRISB3=0;
  1257  000072  9693               	bcf	((c:3987)),c,3	;volatile
  1258                           	line	85
  1259                           ;BootLoader.c: 85: TRISBbits.TRISB4=0;
  1260  000074  9893               	bcf	((c:3987)),c,4	;volatile
  1261                           	line	86
  1262                           ;BootLoader.c: 86: TRISBbits.TRISB5=0;
  1263  000076  9A93               	bcf	((c:3987)),c,5	;volatile
  1264                           	line	87
  1265                           ;BootLoader.c: 87: TRISAbits.TRISA6=0;
  1266  000078  9C92               	bcf	((c:3986)),c,6	;volatile
  1267                           	line	88
  1268                           ;BootLoader.c: 88: TRISAbits.TRISA7=0;
  1269  00007A  9E92               	bcf	((c:3986)),c,7	;volatile
  1270                           	line	90
  1271                           ;BootLoader.c: 90: INTCONbits.GIE=0;
  1272  00007C  9EF2               	bcf	((c:4082)),c,7	;volatile
  1273  00007E  D002               	goto	l2318
  1274                           	line	91
  1275                           ;BootLoader.c: 91: while(1)
  1276                           	
  1277  000080                     l104:
  1278  000080  D001               	goto	l2318
  1279                           	line	93
  1280                           ;BootLoader.c: 92: {
  1281                           ;BootLoader.c: 93: WaitForBlock:
  1282                           	
  1283  000082                     l105:
  1284  000082  D000               	goto	l2318
  1285                           	line	95
  1286                           ;BootLoader.c: 95: while(1)
  1287                           	
  1288  000084                     l106:
  1289                           	line	97
  1290                           	
  1291  000084                     l2318:
  1292                           ;BootLoader.c: 96: {
  1293                           ;BootLoader.c: 97: inp=getc();
  1294  000084  EC8E  F002         	call	_getc	;wreg free
  1295  000088  0100               	movlb	0	; () banked
  1296  00008A  0100               	movlb	0	; () banked
  1297  00008C  6FE2               	movwf	((main@inp))&0ffh
  1298                           	line	98
  1299                           ;BootLoader.c: 98: switch (inp)
  1300  00008E  D021               	goto	l2328
  1301                           	line	100
  1302                           ;BootLoader.c: 99: {
  1303                           ;BootLoader.c: 100: case '!':
  1304                           	
  1305  000090                     l108:
  1306                           	line	101
  1307                           ;BootLoader.c: 101: goto RecieveBlock;
  1308  000090  D035               	goto	l109
  1309                           	line	102
  1310                           ;BootLoader.c: 102: case '#':
  1311                           	
  1312  000092                     l110:
  1313                           	line	103
  1314                           # 103 "C:\Users\THORAXIUM\Dropbox\EaglePCB\projects\Orbit\Firmware\Bootloader\BootLoader
                                 .c"
  1315  000092  00FF               reset ;# 
  1316                           psect	text0
  1317                           	line	104
  1318                           ;BootLoader.c: 104: break;
  1319  000094  D7F7               	goto	l2318
  1320                           	line	105
  1321                           ;BootLoader.c: 105: case '?':
  1322                           	
  1323  000096                     l112:
  1324                           	line	106
  1325                           	
  1326  000096                     l2320:
  1327                           ;BootLoader.c: 106: putc('/');
  1328  000096  6E08               	movwf	(??_main+0+0)&0ffh,c
  1329  000098  0E2F               	movlw	low(02Fh)
  1330  00009A  6E01               	movwf	((c:?_putc)),c
  1331  00009C  5008               	movf	(??_main+0+0)&0ffh,c,w
  1332  00009E  ECC7  F002         	call	_putc	;wreg free
  1333                           	line	107
  1334                           ;BootLoader.c: 107: break;
  1335  0000A2  D7F0               	goto	l2318
  1336                           	line	108
  1337                           ;BootLoader.c: 108: case 'X':
  1338                           	
  1339  0000A4                     l113:
  1340                           	line	109
  1341                           ;BootLoader.c: 109: TRISBbits.TRISB3=0;
  1342  0000A4  9693               	bcf	((c:3987)),c,3	;volatile
  1343                           	line	110
  1344                           ;BootLoader.c: 110: TRISBbits.TRISB4=1;
  1345  0000A6  8893               	bsf	((c:3987)),c,4	;volatile
  1346                           	line	111
  1347                           ;BootLoader.c: 111: TRISBbits.TRISB5=0;
  1348  0000A8  9A93               	bcf	((c:3987)),c,5	;volatile
  1349                           	line	112
  1350                           ;BootLoader.c: 112: TRISAbits.TRISA6=1;
  1351  0000AA  8C92               	bsf	((c:3986)),c,6	;volatile
  1352                           	line	113
  1353                           ;BootLoader.c: 113: TRISAbits.TRISA7=0;
  1354  0000AC  9E92               	bcf	((c:3986)),c,7	;volatile
  1355                           	line	114
  1356                           	
  1357  0000AE                     l2322:
  1358                           ;BootLoader.c: 114: putc('X');
  1359  0000AE  6E08               	movwf	(??_main+0+0)&0ffh,c
  1360  0000B0  0E58               	movlw	low(058h)
  1361  0000B2  6E01               	movwf	((c:?_putc)),c
  1362  0000B4  5008               	movf	(??_main+0+0)&0ffh,c,w
  1363  0000B6  ECC7  F002         	call	_putc	;wreg free
  1364                           	line	115
  1365                           ;BootLoader.c: 115: break;
  1366  0000BA  D7E4               	goto	l2318
  1367                           	line	116
  1368                           ;BootLoader.c: 116: case 'x':
  1369                           	
  1370  0000BC                     l114:
  1371                           	line	117
  1372                           # 117 "C:\Users\THORAXIUM\Dropbox\EaglePCB\projects\Orbit\Firmware\Bootloader\BootLoader
                                 .c"
  1373  0000BC  EF00 F008          goto 0x1000 ;# 
  1374                           psect	text0
  1375                           	line	118
  1376                           ;BootLoader.c: 118: break;
  1377  0000C0  D7E1               	goto	l2318
  1378                           	line	120
  1379                           ;BootLoader.c: 120: default:
  1380                           	
  1381  0000C2                     l115:
  1382                           	line	121
  1383                           	
  1384  0000C2                     l2324:
  1385                           ;BootLoader.c: 121: putc('%');
  1386  0000C2  6E08               	movwf	(??_main+0+0)&0ffh,c
  1387  0000C4  0E25               	movlw	low(025h)
  1388  0000C6  6E01               	movwf	((c:?_putc)),c
  1389  0000C8  5008               	movf	(??_main+0+0)&0ffh,c,w
  1390  0000CA  ECC7  F002         	call	_putc	;wreg free
  1391                           	line	122
  1392                           ;BootLoader.c: 122: break;
  1393  0000CE  D7DA               	goto	l2318
  1394                           	line	123
  1395                           	
  1396  0000D0                     l2326:
  1397                           ;BootLoader.c: 123: }
  1398  0000D0  D7D9               	goto	l2318
  1399                           	line	98
  1400                           	
  1401  0000D2                     l107:
  1402                           	
  1403  0000D2                     l2328:
  1404  0000D2  0100               	movlb	0	; () banked
  1405  0000D4  0100               	movlb	0	; () banked
  1406  0000D6  51E2               	movf	((main@inp))&0ffh,w
  1407                           	; Switch size 1, requested type "space"
  1408                           ; Number of cases is 5, Range of values is 33 to 120
  1409                           ; switch strategies available:
  1410                           ; Name         Instructions Cycles
  1411                           ; simple_byte           16     9 (average)
  1412                           ;	Chosen strategy is simple_byte
  1413                           
  1414  0000D8  0A21               	xorlw	33^0	; case 33
  1415  0000DA  B4D8               	skipnz
  1416  0000DC  D00F               	goto	l109
  1417  0000DE  0A02               	xorlw	35^33	; case 35
  1418  0000E0  B4D8               	skipnz
  1419  0000E2  D7D7               	goto	l110
  1420  0000E4  0A1C               	xorlw	63^35	; case 63
  1421  0000E6  B4D8               	skipnz
  1422  0000E8  D7D6               	goto	l2320
  1423  0000EA  0A67               	xorlw	88^63	; case 88
  1424  0000EC  B4D8               	skipnz
  1425  0000EE  D7DA               	goto	l113
  1426  0000F0  0A20               	xorlw	120^88	; case 120
  1427  0000F2  B4D8               	skipnz
  1428  0000F4  D7E3               	goto	l114
  1429  0000F6  D7E5               	goto	l2324
  1430                           
  1431                           	line	123
  1432                           	
  1433  0000F8                     l111:
  1434  0000F8  D7C5               	goto	l2318
  1435                           	line	124
  1436                           	
  1437  0000FA                     l116:
  1438                           	line	95
  1439  0000FA  D7C4               	goto	l2318
  1440                           	
  1441  0000FC                     l117:
  1442                           	line	126
  1443                           ;BootLoader.c: 124: }
  1444                           ;BootLoader.c: 126: RecieveBlock:
  1445                           	
  1446  0000FC                     l109:
  1447                           	line	127
  1448                           ;BootLoader.c: 127: INTCONbits.GIE=0;
  1449  0000FC  9EF2               	bcf	((c:4082)),c,7	;volatile
  1450                           	line	128
  1451                           	
  1452  0000FE                     l2330:
  1453                           ;BootLoader.c: 128: CheckSum=0;
  1454  0000FE  6E08               	movwf	(??_main+0+0)&0ffh,c
  1455  000100  0E00               	movlw	low(0)
  1456  000102  0100               	movlb	0	; () banked
  1457  000104  0100               	movlb	0	; () banked
  1458  000106  6FE1               	movwf	((main@CheckSum))&0ffh
  1459  000108  5008               	movf	(??_main+0+0)&0ffh,c,w
  1460                           	line	130
  1461                           	
  1462  00010A                     l2332:
  1463                           ;BootLoader.c: 130: BlockAddress.ul=0;
  1464  00010A  0E00               	movlw	low(0)
  1465  00010C  0100               	movlb	0	; () banked
  1466  00010E  0100               	movlb	0	; () banked
  1467  000110  6FE6               	movwf	((main@BlockAddress))&0ffh
  1468  000112  0E00               	movlw	high(0)
  1469  000114  0100               	movlb	0	; () banked
  1470  000116  6FE7               	movwf	((main@BlockAddress+1))&0ffh
  1471  000118  0E00               	movlw	low highword(0)
  1472  00011A  0100               	movlb	0	; () banked
  1473  00011C  6FE8               	movwf	((main@BlockAddress+2))&0ffh
  1474  00011E  0E00               	movlw	high highword(0)
  1475  000120  0100               	movlb	0	; () banked
  1476  000122  6FE9               	movwf	((main@BlockAddress+3))&0ffh
  1477                           	line	132
  1478                           	
  1479  000124                     l2334:
  1480                           ;BootLoader.c: 132: temp=gethex();
  1481  000124  EC30  F002         	call	_gethex	;wreg free
  1482  000128  0100               	movlb	0	; () banked
  1483  00012A  0100               	movlb	0	; () banked
  1484  00012C  6FEA               	movwf	((main@temp))&0ffh
  1485                           	line	133
  1486                           	
  1487  00012E                     l2336:
  1488                           ;BootLoader.c: 133: if (temp==-1) goto rxerror;
  1489  00012E  0100               	movlb	0	; () banked
  1490  000130  0100               	movlb	0	; () banked
  1491  000132  29EA               	incf	((main@temp))&0ffh,w
  1492                           
  1493  000134  A4D8               	btfss	status,2
  1494  000136  D001               	goto	u2271
  1495  000138  D001               	goto	u2270
  1496  00013A                     u2271:
  1497  00013A  D002               	goto	l2340
  1498  00013C                     u2270:
  1499  00013C  D153               	goto	l2464
  1500                           	
  1501  00013E                     l2338:
  1502  00013E  D152               	goto	l2464
  1503                           	
  1504  000140                     l118:
  1505                           	line	134
  1506                           	
  1507  000140                     l2340:
  1508                           ;BootLoader.c: 134: BlockAddress.ub[0]=temp<<4;
  1509  000140  0100               	movlb	0	; () banked
  1510  000142  0100               	movlb	0	; () banked
  1511  000144  39EA               	swapf	((main@temp))&0ffh,w
  1512  000146  0BF0               	andlw	(0ffh shl 4) & 0ffh
  1513  000148  0100               	movlb	0	; () banked
  1514  00014A  0100               	movlb	0	; () banked
  1515  00014C  6FE6               	movwf	((main@BlockAddress))&0ffh
  1516                           	line	135
  1517                           	
  1518  00014E                     l2342:
  1519                           ;BootLoader.c: 135: temp=gethex();
  1520  00014E  EC30  F002         	call	_gethex	;wreg free
  1521  000152  0100               	movlb	0	; () banked
  1522  000154  0100               	movlb	0	; () banked
  1523  000156  6FEA               	movwf	((main@temp))&0ffh
  1524                           	line	136
  1525                           	
  1526  000158                     l2344:
  1527                           ;BootLoader.c: 136: if (temp==-1) goto rxerror;
  1528  000158  0100               	movlb	0	; () banked
  1529  00015A  0100               	movlb	0	; () banked
  1530  00015C  29EA               	incf	((main@temp))&0ffh,w
  1531                           
  1532  00015E  A4D8               	btfss	status,2
  1533  000160  D001               	goto	u2281
  1534  000162  D001               	goto	u2280
  1535  000164                     u2281:
  1536  000164  D002               	goto	l2348
  1537  000166                     u2280:
  1538  000166  D13E               	goto	l2464
  1539                           	
  1540  000168                     l2346:
  1541  000168  D13D               	goto	l2464
  1542                           	
  1543  00016A                     l120:
  1544                           	line	137
  1545                           	
  1546  00016A                     l2348:
  1547                           ;BootLoader.c: 137: BlockAddress.ub[0]+=temp;
  1548  00016A  0100               	movlb	0	; () banked
  1549  00016C  0100               	movlb	0	; () banked
  1550  00016E  51EA               	movf	((main@temp))&0ffh,w
  1551  000170  0100               	movlb	0	; () banked
  1552  000172  0100               	movlb	0	; () banked
  1553  000174  27E6               	addwf	((main@BlockAddress))&0ffh
  1554                           	line	139
  1555                           	
  1556  000176                     l2350:
  1557                           ;BootLoader.c: 139: temp=gethex();
  1558  000176  EC30  F002         	call	_gethex	;wreg free
  1559  00017A  0100               	movlb	0	; () banked
  1560  00017C  0100               	movlb	0	; () banked
  1561  00017E  6FEA               	movwf	((main@temp))&0ffh
  1562                           	line	140
  1563                           	
  1564  000180                     l2352:
  1565                           ;BootLoader.c: 140: if (temp==-1) goto rxerror;
  1566  000180  0100               	movlb	0	; () banked
  1567  000182  0100               	movlb	0	; () banked
  1568  000184  29EA               	incf	((main@temp))&0ffh,w
  1569                           
  1570  000186  A4D8               	btfss	status,2
  1571  000188  D001               	goto	u2291
  1572  00018A  D001               	goto	u2290
  1573  00018C                     u2291:
  1574  00018C  D002               	goto	l2356
  1575  00018E                     u2290:
  1576  00018E  D12A               	goto	l2464
  1577                           	
  1578  000190                     l2354:
  1579  000190  D129               	goto	l2464
  1580                           	
  1581  000192                     l121:
  1582                           	line	141
  1583                           	
  1584  000192                     l2356:
  1585                           ;BootLoader.c: 141: BlockAddress.ub[1]=temp<<4;
  1586  000192  0100               	movlb	0	; () banked
  1587  000194  0100               	movlb	0	; () banked
  1588  000196  39EA               	swapf	((main@temp))&0ffh,w
  1589  000198  0BF0               	andlw	(0ffh shl 4) & 0ffh
  1590  00019A  0100               	movlb	0	; () banked
  1591  00019C  0100               	movlb	0	; () banked
  1592  00019E  6FE7               	movwf	(0+(main@BlockAddress+01h))&0ffh
  1593                           	line	142
  1594                           	
  1595  0001A0                     l2358:
  1596                           ;BootLoader.c: 142: temp=gethex();
  1597  0001A0  EC30  F002         	call	_gethex	;wreg free
  1598  0001A4  0100               	movlb	0	; () banked
  1599  0001A6  0100               	movlb	0	; () banked
  1600  0001A8  6FEA               	movwf	((main@temp))&0ffh
  1601                           	line	143
  1602                           	
  1603  0001AA                     l2360:
  1604                           ;BootLoader.c: 143: if (temp==-1) goto rxerror;
  1605  0001AA  0100               	movlb	0	; () banked
  1606  0001AC  0100               	movlb	0	; () banked
  1607  0001AE  29EA               	incf	((main@temp))&0ffh,w
  1608                           
  1609  0001B0  A4D8               	btfss	status,2
  1610  0001B2  D001               	goto	u2301
  1611  0001B4  D001               	goto	u2300
  1612  0001B6                     u2301:
  1613  0001B6  D002               	goto	l2364
  1614  0001B8                     u2300:
  1615  0001B8  D115               	goto	l2464
  1616                           	
  1617  0001BA                     l2362:
  1618  0001BA  D114               	goto	l2464
  1619                           	
  1620  0001BC                     l122:
  1621                           	line	144
  1622                           	
  1623  0001BC                     l2364:
  1624                           ;BootLoader.c: 144: BlockAddress.ub[1]+=temp;
  1625  0001BC  0100               	movlb	0	; () banked
  1626  0001BE  0100               	movlb	0	; () banked
  1627  0001C0  51EA               	movf	((main@temp))&0ffh,w
  1628  0001C2  0100               	movlb	0	; () banked
  1629  0001C4  0100               	movlb	0	; () banked
  1630  0001C6  27E7               	addwf	(0+(main@BlockAddress+01h))&0ffh
  1631                           	line	146
  1632                           ;BootLoader.c: 146: BlockAddress.ul<<=7;
  1633  0001C8  0100               	movlb	0	; () banked
  1634  0001CA  0E07               	movlw	07h
  1635  0001CC                     u2315:
  1636  0001CC  90D8               	bcf	status,0
  1637  0001CE  0100               	movlb	0	; () banked
  1638  0001D0  37E6               	rlcf	((main@BlockAddress))&0ffh
  1639  0001D2  0100               	movlb	0	; () banked
  1640  0001D4  37E7               	rlcf	((main@BlockAddress+1))&0ffh
  1641  0001D6  0100               	movlb	0	; () banked
  1642  0001D8  37E8               	rlcf	((main@BlockAddress+2))&0ffh
  1643  0001DA  0100               	movlb	0	; () banked
  1644  0001DC  37E9               	rlcf	((main@BlockAddress+3))&0ffh
  1645  0001DE  2EE8               	decfsz	wreg
  1646  0001E0  D7F5               	goto	u2315
  1647                           	line	149
  1648                           	
  1649  0001E2                     l2366:
  1650                           ;BootLoader.c: 149: for (idx=0;idx<128;idx++)
  1651  0001E2  6E08               	movwf	(??_main+0+0)&0ffh,c
  1652  0001E4  0E00               	movlw	low(0)
  1653  0001E6  0100               	movlb	0	; () banked
  1654  0001E8  0100               	movlb	0	; () banked
  1655  0001EA  6FE5               	movwf	((main@idx))&0ffh
  1656  0001EC  5008               	movf	(??_main+0+0)&0ffh,c,w
  1657                           	
  1658  0001EE                     l2368:
  1659  0001EE  0E7F               	movlw	(080h-1)
  1660  0001F0  0100               	movlb	0	; () banked
  1661  0001F2  0100               	movlb	0	; () banked
  1662  0001F4  65E5               	cpfsgt	((main@idx))&0ffh
  1663  0001F6  D001               	goto	u2321
  1664  0001F8  D001               	goto	u2320
  1665  0001FA                     u2321:
  1666  0001FA  D002               	goto	l2372
  1667  0001FC                     u2320:
  1668  0001FC  D048               	goto	l124
  1669                           	
  1670  0001FE                     l2370:
  1671  0001FE  D047               	goto	l124
  1672                           	line	150
  1673                           	
  1674  000200                     l123:
  1675                           	line	151
  1676                           	
  1677  000200                     l2372:
  1678                           ;BootLoader.c: 150: {
  1679                           ;BootLoader.c: 151: temp=gethex();
  1680  000200  EC30  F002         	call	_gethex	;wreg free
  1681  000204  0100               	movlb	0	; () banked
  1682  000206  0100               	movlb	0	; () banked
  1683  000208  6FEA               	movwf	((main@temp))&0ffh
  1684                           	line	152
  1685                           	
  1686  00020A                     l2374:
  1687                           ;BootLoader.c: 152: if (temp==-1) goto rxerror;
  1688  00020A  0100               	movlb	0	; () banked
  1689  00020C  0100               	movlb	0	; () banked
  1690  00020E  29EA               	incf	((main@temp))&0ffh,w
  1691                           
  1692  000210  A4D8               	btfss	status,2
  1693  000212  D001               	goto	u2331
  1694  000214  D001               	goto	u2330
  1695  000216                     u2331:
  1696  000216  D002               	goto	l125
  1697  000218                     u2330:
  1698  000218  D0E5               	goto	l2464
  1699                           	
  1700  00021A                     l2376:
  1701  00021A  D0E4               	goto	l2464
  1702                           	
  1703  00021C                     l125:
  1704                           	line	153
  1705                           ;BootLoader.c: 153: tbuf=temp;
  1706  00021C  C0EA  F0E3         	movff	(main@temp),(main@tbuf)
  1707                           	line	154
  1708                           	
  1709  000220                     l2378:
  1710                           ;BootLoader.c: 154: tbuf<<=4;
  1711  000220  0100               	movlb	0	; () banked
  1712  000222  3BE3               	swapf	((main@tbuf))&0ffh
  1713  000224  0EF0               	movlw	240
  1714  000226  17E3               	andwf	((main@tbuf))&0ffh
  1715                           
  1716                           	line	155
  1717                           	
  1718  000228                     l2380:
  1719                           ;BootLoader.c: 155: temp=gethex();
  1720  000228  EC30  F002         	call	_gethex	;wreg free
  1721  00022C  0100               	movlb	0	; () banked
  1722  00022E  0100               	movlb	0	; () banked
  1723  000230  6FEA               	movwf	((main@temp))&0ffh
  1724                           	line	156
  1725                           	
  1726  000232                     l2382:
  1727                           ;BootLoader.c: 156: if (temp==-1) goto rxerror;
  1728  000232  0100               	movlb	0	; () banked
  1729  000234  0100               	movlb	0	; () banked
  1730  000236  29EA               	incf	((main@temp))&0ffh,w
  1731                           
  1732  000238  A4D8               	btfss	status,2
  1733  00023A  D001               	goto	u2341
  1734  00023C  D001               	goto	u2340
  1735  00023E                     u2341:
  1736  00023E  D002               	goto	l2386
  1737  000240                     u2340:
  1738  000240  D0D1               	goto	l2464
  1739                           	
  1740  000242                     l2384:
  1741  000242  D0D0               	goto	l2464
  1742                           	
  1743  000244                     l126:
  1744                           	line	157
  1745                           	
  1746  000244                     l2386:
  1747                           ;BootLoader.c: 157: tbuf+=temp;
  1748  000244  0100               	movlb	0	; () banked
  1749  000246  0100               	movlb	0	; () banked
  1750  000248  51EA               	movf	((main@temp))&0ffh,w
  1751  00024A  0100               	movlb	0	; () banked
  1752  00024C  0100               	movlb	0	; () banked
  1753  00024E  27E3               	addwf	((main@tbuf))&0ffh
  1754                           	line	158
  1755                           	
  1756  000250                     l2388:
  1757                           ;BootLoader.c: 158: Buffer[idx]=tbuf;
  1758  000250  0100               	movlb	0	; () banked
  1759  000252  0100               	movlb	0	; () banked
  1760  000254  51E5               	movf	((main@idx))&0ffh,w
  1761  000256  0D01               	mullw	01h
  1762  000258  0100               	movlb	0	; () banked
  1763  00025A  0E60               	movlw	low(main@Buffer)
  1764  00025C  24F3               	addwf	(prodl),c,w
  1765  00025E  6ED9               	movwf	c:fsr2l
  1766  000260  6ADA               	clrf	1+c:fsr2l
  1767  000262  0100               	movlb	0	; () banked
  1768  000264  0E00               	movlw	high(main@Buffer)
  1769  000266  22DA               	addwfc	1+c:fsr2l
  1770  000268  0100               	movlb	0	; () banked
  1771  00026A  C0E3  FFDF         	movff	(main@tbuf),indf2
  1772                           
  1773                           	line	159
  1774                           	
  1775  00026E                     l2390:
  1776                           ;BootLoader.c: 159: CheckSum+=tbuf;
  1777  00026E  0100               	movlb	0	; () banked
  1778  000270  0100               	movlb	0	; () banked
  1779  000272  51E3               	movf	((main@tbuf))&0ffh,w
  1780  000274  0100               	movlb	0	; () banked
  1781  000276  0100               	movlb	0	; () banked
  1782  000278  27E1               	addwf	((main@CheckSum))&0ffh
  1783                           	line	149
  1784                           	
  1785  00027A                     l2392:
  1786  00027A  0100               	movlb	0	; () banked
  1787  00027C  0100               	movlb	0	; () banked
  1788  00027E  2BE5               	incf	((main@idx))&0ffh
  1789                           	
  1790  000280                     l2394:
  1791  000280  0E7F               	movlw	(080h-1)
  1792  000282  0100               	movlb	0	; () banked
  1793  000284  0100               	movlb	0	; () banked
  1794  000286  65E5               	cpfsgt	((main@idx))&0ffh
  1795  000288  D001               	goto	u2351
  1796  00028A  D001               	goto	u2350
  1797  00028C                     u2351:
  1798  00028C  D7B9               	goto	l2372
  1799  00028E                     u2350:
  1800                           	
  1801  00028E                     l124:
  1802                           	line	164
  1803                           ;BootLoader.c: 160: }
  1804                           ;BootLoader.c: 164: TBLPTRL=BlockAddress.ub[0];
  1805  00028E  C0E6  FFF6         	movff	(main@BlockAddress),(c:4086)	;volatile
  1806                           	line	165
  1807                           ;BootLoader.c: 165: TBLPTRH=BlockAddress.ub[1];
  1808  000292  C0E7  FFF7         	movff	0+(main@BlockAddress+01h),(c:4087)	;volatile
  1809                           	line	166
  1810                           ;BootLoader.c: 166: TBLPTRU=BlockAddress.ub[2];
  1811  000296  C0E8  FFF8         	movff	0+(main@BlockAddress+02h),(c:4088)	;volatile
  1812                           	line	169
  1813                           ;BootLoader.c: 169: EECON1bits.EEPGD=1;
  1814  00029A  8E7F               	bsf	((c:3967)),c,7	;volatile
  1815                           	line	170
  1816                           ;BootLoader.c: 170: EECON1bits.CFGS=0;
  1817  00029C  9C7F               	bcf	((c:3967)),c,6	;volatile
  1818                           	line	171
  1819                           ;BootLoader.c: 171: EECON1bits.WREN=1;
  1820  00029E  847F               	bsf	((c:3967)),c,2	;volatile
  1821                           	line	172
  1822                           ;BootLoader.c: 172: EECON1bits.FREE=1;
  1823  0002A0  887F               	bsf	((c:3967)),c,4	;volatile
  1824                           	line	173
  1825                           	
  1826  0002A2                     l2396:
  1827                           ;BootLoader.c: 173: EECON2=0x55;
  1828  0002A2  0E55               	movlw	low(055h)
  1829  0002A4  6E7E               	movwf	((c:3966)),c	;volatile
  1830                           	line	174
  1831                           ;BootLoader.c: 174: EECON2=0xAA;
  1832  0002A6  0EAA               	movlw	low(0AAh)
  1833  0002A8  6E7E               	movwf	((c:3966)),c	;volatile
  1834                           	line	175
  1835                           	
  1836  0002AA                     l2398:
  1837                           ;BootLoader.c: 175: EECON1bits.WR=1;
  1838  0002AA  827F               	bsf	((c:3967)),c,1	;volatile
  1839                           	line	176
  1840                           	
  1841  0002AC                     l2400:
  1842                           # 176 "C:\Users\THORAXIUM\Dropbox\EaglePCB\projects\Orbit\Firmware\Bootloader\BootLoader
                                 .c"
  1843  0002AC  F000               nop ;# 
  1844                           psect	text0
  1845                           	line	177
  1846                           	
  1847  0002AE                     l2402:
  1848                           ;BootLoader.c: 177: EECON1bits.WREN=0;
  1849  0002AE  947F               	bcf	((c:3967)),c,2	;volatile
  1850                           	line	178
  1851                           	
  1852  0002B0                     l2404:
  1853                           ;BootLoader.c: 178: if (EECON1bits.WRERR) goto rxerror;
  1854                           	
  1855  0002B0  A67F               	btfss	((c:3967)),c,3	;volatile
  1856  0002B2  D001               	goto	u2361
  1857  0002B4  D001               	goto	u2360
  1858  0002B6                     u2361:
  1859  0002B6  D002               	goto	l127
  1860  0002B8                     u2360:
  1861  0002B8  D095               	goto	l2464
  1862                           	
  1863  0002BA                     l2406:
  1864  0002BA  D094               	goto	l2464
  1865                           	
  1866  0002BC                     l127:
  1867                           	line	182
  1868                           ;BootLoader.c: 182: TBLPTRL=BlockAddress.ub[0];
  1869  0002BC  C0E6  FFF6         	movff	(main@BlockAddress),(c:4086)	;volatile
  1870                           	line	183
  1871                           ;BootLoader.c: 183: TBLPTRH=BlockAddress.ub[1];
  1872  0002C0  C0E7  FFF7         	movff	0+(main@BlockAddress+01h),(c:4087)	;volatile
  1873                           	line	184
  1874                           ;BootLoader.c: 184: TBLPTRU=BlockAddress.ub[2];
  1875  0002C4  C0E8  FFF8         	movff	0+(main@BlockAddress+02h),(c:4088)	;volatile
  1876                           	line	188
  1877                           ;BootLoader.c: 188: TABLAT=Buffer[0];
  1878  0002C8  C060  FFF5         	movff	(main@Buffer),(c:4085)	;volatile
  1879                           	line	189
  1880                           # 189 "C:\Users\THORAXIUM\Dropbox\EaglePCB\projects\Orbit\Firmware\Bootloader\BootLoader
                                 .c"
  1881  0002CC  000C               TBLWT* ;# 
  1882                           psect	text0
  1883                           	line	190
  1884                           	
  1885  0002CE                     l2408:
  1886                           ;BootLoader.c: 190: for (idx=1;idx<128;idx++)
  1887  0002CE  6E08               	movwf	(??_main+0+0)&0ffh,c
  1888  0002D0  0E01               	movlw	low(01h)
  1889  0002D2  0100               	movlb	0	; () banked
  1890  0002D4  0100               	movlb	0	; () banked
  1891  0002D6  6FE5               	movwf	((main@idx))&0ffh
  1892  0002D8  5008               	movf	(??_main+0+0)&0ffh,c,w
  1893                           	
  1894  0002DA                     l2410:
  1895  0002DA  0E7F               	movlw	(080h-1)
  1896  0002DC  0100               	movlb	0	; () banked
  1897  0002DE  0100               	movlb	0	; () banked
  1898  0002E0  65E5               	cpfsgt	((main@idx))&0ffh
  1899  0002E2  D001               	goto	u2371
  1900  0002E4  D001               	goto	u2370
  1901  0002E6                     u2371:
  1902  0002E6  D002               	goto	l2414
  1903  0002E8                     u2370:
  1904  0002E8  D01A               	goto	l129
  1905                           	
  1906  0002EA                     l2412:
  1907  0002EA  D019               	goto	l129
  1908                           	line	191
  1909                           	
  1910  0002EC                     l128:
  1911                           	line	192
  1912                           	
  1913  0002EC                     l2414:
  1914                           ;BootLoader.c: 191: {
  1915                           ;BootLoader.c: 192: TABLAT=Buffer[idx];
  1916  0002EC  0100               	movlb	0	; () banked
  1917  0002EE  0100               	movlb	0	; () banked
  1918  0002F0  51E5               	movf	((main@idx))&0ffh,w
  1919  0002F2  0D01               	mullw	01h
  1920  0002F4  0100               	movlb	0	; () banked
  1921  0002F6  0E60               	movlw	low(main@Buffer)
  1922  0002F8  24F3               	addwf	(prodl),c,w
  1923  0002FA  6ED9               	movwf	c:fsr2l
  1924  0002FC  6ADA               	clrf	1+c:fsr2l
  1925  0002FE  0100               	movlb	0	; () banked
  1926  000300  0E00               	movlw	high(main@Buffer)
  1927  000302  22DA               	addwfc	1+c:fsr2l
  1928  000304  50DF               	movf	indf2,w
  1929  000306  6EF5               	movwf	((c:4085)),c	;volatile
  1930                           	line	193
  1931                           	
  1932  000308                     l2416:
  1933                           # 193 "C:\Users\THORAXIUM\Dropbox\EaglePCB\projects\Orbit\Firmware\Bootloader\BootLoader
                                 .c"
  1934  000308  000F               TBLWT+* ;# 
  1935                           psect	text0
  1936                           	line	190
  1937                           	
  1938  00030A                     l2418:
  1939  00030A  0100               	movlb	0	; () banked
  1940  00030C  0100               	movlb	0	; () banked
  1941  00030E  2BE5               	incf	((main@idx))&0ffh
  1942                           	
  1943  000310                     l2420:
  1944  000310  0E7F               	movlw	(080h-1)
  1945  000312  0100               	movlb	0	; () banked
  1946  000314  0100               	movlb	0	; () banked
  1947  000316  65E5               	cpfsgt	((main@idx))&0ffh
  1948  000318  D001               	goto	u2381
  1949  00031A  D001               	goto	u2380
  1950  00031C                     u2381:
  1951  00031C  D7E7               	goto	l2414
  1952  00031E                     u2380:
  1953                           	
  1954  00031E                     l129:
  1955                           	line	197
  1956                           ;BootLoader.c: 194: }
  1957                           ;BootLoader.c: 197: EECON1bits.EEPGD=1;
  1958  00031E  8E7F               	bsf	((c:3967)),c,7	;volatile
  1959                           	line	198
  1960                           ;BootLoader.c: 198: EECON1bits.CFGS=0;
  1961  000320  9C7F               	bcf	((c:3967)),c,6	;volatile
  1962                           	line	199
  1963                           ;BootLoader.c: 199: EECON1bits.WREN=1;
  1964  000322  847F               	bsf	((c:3967)),c,2	;volatile
  1965                           	line	200
  1966                           ;BootLoader.c: 200: EECON1bits.FREE=0;
  1967  000324  987F               	bcf	((c:3967)),c,4	;volatile
  1968                           	line	201
  1969                           	
  1970  000326                     l2422:
  1971                           ;BootLoader.c: 201: EECON2=0x55;
  1972  000326  0E55               	movlw	low(055h)
  1973  000328  6E7E               	movwf	((c:3966)),c	;volatile
  1974                           	line	202
  1975                           ;BootLoader.c: 202: EECON2=0xAA;
  1976  00032A  0EAA               	movlw	low(0AAh)
  1977  00032C  6E7E               	movwf	((c:3966)),c	;volatile
  1978                           	line	203
  1979                           	
  1980  00032E                     l2424:
  1981                           ;BootLoader.c: 203: EECON1bits.WR=1;
  1982  00032E  827F               	bsf	((c:3967)),c,1	;volatile
  1983                           	line	204
  1984                           	
  1985  000330                     l2426:
  1986                           # 204 "C:\Users\THORAXIUM\Dropbox\EaglePCB\projects\Orbit\Firmware\Bootloader\BootLoader
                                 .c"
  1987  000330  F000               nop ;# 
  1988                           psect	text0
  1989                           	line	205
  1990                           	
  1991  000332                     l2428:
  1992                           ;BootLoader.c: 205: EECON1bits.WREN=0;
  1993  000332  947F               	bcf	((c:3967)),c,2	;volatile
  1994                           	line	206
  1995                           	
  1996  000334                     l2430:
  1997                           ;BootLoader.c: 206: if (EECON1bits.WRERR) goto rxerror;
  1998                           	
  1999  000334  A67F               	btfss	((c:3967)),c,3	;volatile
  2000  000336  D001               	goto	u2391
  2001  000338  D001               	goto	u2390
  2002  00033A                     u2391:
  2003  00033A  D002               	goto	l2434
  2004  00033C                     u2390:
  2005  00033C  D053               	goto	l2464
  2006                           	
  2007  00033E                     l2432:
  2008  00033E  D052               	goto	l2464
  2009                           	
  2010  000340                     l130:
  2011                           	line	210
  2012                           	
  2013  000340                     l2434:
  2014                           ;BootLoader.c: 210: cc++;
  2015  000340  0100               	movlb	0	; () banked
  2016  000342  0100               	movlb	0	; () banked
  2017  000344  2BE4               	incf	((main@cc))&0ffh
  2018                           	line	211
  2019                           	
  2020  000346                     l2436:
  2021                           ;BootLoader.c: 211: if (cc==0) {
  2022  000346  0100               	movlb	0	; () banked
  2023  000348  0100               	movlb	0	; () banked
  2024  00034A  67E4               	tstfsz	((main@cc))&0ffh
  2025  00034C  D001               	goto	u2401
  2026  00034E  D001               	goto	u2400
  2027  000350                     u2401:
  2028  000350  D006               	goto	l2440
  2029  000352                     u2400:
  2030                           	line	212
  2031                           	
  2032  000352                     l2438:
  2033                           ;BootLoader.c: 212: TRISBbits.TRISB3=1;
  2034  000352  8693               	bsf	((c:3987)),c,3	;volatile
  2035                           	line	213
  2036                           ;BootLoader.c: 213: TRISBbits.TRISB4=1;
  2037  000354  8893               	bsf	((c:3987)),c,4	;volatile
  2038                           	line	214
  2039                           ;BootLoader.c: 214: TRISBbits.TRISB5=1;
  2040  000356  8A93               	bsf	((c:3987)),c,5	;volatile
  2041                           	line	215
  2042                           ;BootLoader.c: 215: TRISAbits.TRISA6=1;
  2043  000358  8C92               	bsf	((c:3986)),c,6	;volatile
  2044                           	line	216
  2045                           ;BootLoader.c: 216: TRISAbits.TRISA7=1;
  2046  00035A  8E92               	bsf	((c:3986)),c,7	;volatile
  2047                           	line	217
  2048                           ;BootLoader.c: 217: } else if (cc==1) {
  2049  00035C  D03C               	goto	l2462
  2050                           	
  2051  00035E                     l131:
  2052                           	
  2053  00035E                     l2440:
  2054  00035E  0100               	movlb	0	; () banked
  2055  000360  0100               	movlb	0	; () banked
  2056  000362  05E4               	decf	((main@cc))&0ffh,w
  2057                           
  2058  000364  A4D8               	btfss	status,2
  2059  000366  D001               	goto	u2411
  2060  000368  D001               	goto	u2410
  2061  00036A                     u2411:
  2062  00036A  D002               	goto	l2444
  2063  00036C                     u2410:
  2064                           	line	218
  2065                           	
  2066  00036C                     l2442:
  2067                           ;BootLoader.c: 218: TRISBbits.TRISB3=0;
  2068  00036C  9693               	bcf	((c:3987)),c,3	;volatile
  2069                           	line	219
  2070                           ;BootLoader.c: 219: } else if (cc==2) {
  2071  00036E  D033               	goto	l2462
  2072                           	
  2073  000370                     l133:
  2074                           	
  2075  000370                     l2444:
  2076  000370  0100               	movlb	0	; () banked
  2077  000372  0100               	movlb	0	; () banked
  2078  000374  51E4               	movf	((main@cc))&0ffh,w
  2079  000376  0A02               	xorlw	2
  2080                           
  2081  000378  A4D8               	btfss	status,2
  2082  00037A  D001               	goto	u2421
  2083  00037C  D001               	goto	u2420
  2084  00037E                     u2421:
  2085  00037E  D002               	goto	l2448
  2086  000380                     u2420:
  2087                           	line	220
  2088                           	
  2089  000380                     l2446:
  2090                           ;BootLoader.c: 220: TRISBbits.TRISB4=0;
  2091  000380  9893               	bcf	((c:3987)),c,4	;volatile
  2092                           	line	221
  2093                           ;BootLoader.c: 221: } else if (cc==3) {
  2094  000382  D029               	goto	l2462
  2095                           	
  2096  000384                     l135:
  2097                           	
  2098  000384                     l2448:
  2099  000384  0100               	movlb	0	; () banked
  2100  000386  0100               	movlb	0	; () banked
  2101  000388  51E4               	movf	((main@cc))&0ffh,w
  2102  00038A  0A03               	xorlw	3
  2103                           
  2104  00038C  A4D8               	btfss	status,2
  2105  00038E  D001               	goto	u2431
  2106  000390  D001               	goto	u2430
  2107  000392                     u2431:
  2108  000392  D002               	goto	l2452
  2109  000394                     u2430:
  2110                           	line	222
  2111                           	
  2112  000394                     l2450:
  2113                           ;BootLoader.c: 222: TRISBbits.TRISB5=0;
  2114  000394  9A93               	bcf	((c:3987)),c,5	;volatile
  2115                           	line	223
  2116                           ;BootLoader.c: 223: } else if (cc==4) {
  2117  000396  D01F               	goto	l2462
  2118                           	
  2119  000398                     l137:
  2120                           	
  2121  000398                     l2452:
  2122  000398  0100               	movlb	0	; () banked
  2123  00039A  0100               	movlb	0	; () banked
  2124  00039C  51E4               	movf	((main@cc))&0ffh,w
  2125  00039E  0A04               	xorlw	4
  2126                           
  2127  0003A0  A4D8               	btfss	status,2
  2128  0003A2  D001               	goto	u2441
  2129  0003A4  D001               	goto	u2440
  2130  0003A6                     u2441:
  2131  0003A6  D002               	goto	l2456
  2132  0003A8                     u2440:
  2133                           	line	224
  2134                           	
  2135  0003A8                     l2454:
  2136                           ;BootLoader.c: 224: TRISAbits.TRISA6=0;
  2137  0003A8  9C92               	bcf	((c:3986)),c,6	;volatile
  2138                           	line	225
  2139                           ;BootLoader.c: 225: } else if (cc==5) {
  2140  0003AA  D015               	goto	l2462
  2141                           	
  2142  0003AC                     l139:
  2143                           	
  2144  0003AC                     l2456:
  2145  0003AC  0100               	movlb	0	; () banked
  2146  0003AE  0100               	movlb	0	; () banked
  2147  0003B0  51E4               	movf	((main@cc))&0ffh,w
  2148  0003B2  0A05               	xorlw	5
  2149                           
  2150  0003B4  A4D8               	btfss	status,2
  2151  0003B6  D001               	goto	u2451
  2152  0003B8  D001               	goto	u2450
  2153  0003BA                     u2451:
  2154  0003BA  D00D               	goto	l2462
  2155  0003BC                     u2450:
  2156                           	line	226
  2157                           	
  2158  0003BC                     l2458:
  2159                           ;BootLoader.c: 226: TRISAbits.TRISA7=0;
  2160  0003BC  9E92               	bcf	((c:3986)),c,7	;volatile
  2161                           	line	227
  2162                           	
  2163  0003BE                     l2460:
  2164                           ;BootLoader.c: 227: cc=0;
  2165  0003BE  6E08               	movwf	(??_main+0+0)&0ffh,c
  2166  0003C0  0E00               	movlw	low(0)
  2167  0003C2  0100               	movlb	0	; () banked
  2168  0003C4  0100               	movlb	0	; () banked
  2169  0003C6  6FE4               	movwf	((main@cc))&0ffh
  2170  0003C8  5008               	movf	(??_main+0+0)&0ffh,c,w
  2171  0003CA  D005               	goto	l2462
  2172                           	line	228
  2173                           	
  2174  0003CC                     l141:
  2175  0003CC  D004               	goto	l2462
  2176                           	line	230
  2177                           	
  2178  0003CE                     l140:
  2179  0003CE  D003               	goto	l2462
  2180                           	
  2181  0003D0                     l138:
  2182  0003D0  D002               	goto	l2462
  2183                           	
  2184  0003D2                     l136:
  2185  0003D2  D001               	goto	l2462
  2186                           	
  2187  0003D4                     l134:
  2188  0003D4  D000               	goto	l2462
  2189                           	
  2190  0003D6                     l132:
  2191                           	
  2192  0003D6                     l2462:
  2193                           ;BootLoader.c: 228: }
  2194                           ;BootLoader.c: 230: putc('*');
  2195  0003D6  6E08               	movwf	(??_main+0+0)&0ffh,c
  2196  0003D8  0E2A               	movlw	low(02Ah)
  2197  0003DA  6E01               	movwf	((c:?_putc)),c
  2198  0003DC  5008               	movf	(??_main+0+0)&0ffh,c,w
  2199  0003DE  ECC7  F002         	call	_putc	;wreg free
  2200                           	line	232
  2201                           ;BootLoader.c: 232: goto WaitForBlock;
  2202  0003E2  D650               	goto	l2318
  2203                           	line	233
  2204                           ;BootLoader.c: 233: rxerror:
  2205                           	
  2206  0003E4                     l119:
  2207                           	line	234
  2208                           	
  2209  0003E4                     l2464:
  2210                           ;BootLoader.c: 234: putc('%');
  2211  0003E4  6E08               	movwf	(??_main+0+0)&0ffh,c
  2212  0003E6  0E25               	movlw	low(025h)
  2213  0003E8  6E01               	movwf	((c:?_putc)),c
  2214  0003EA  5008               	movf	(??_main+0+0)&0ffh,c,w
  2215  0003EC  ECC7  F002         	call	_putc	;wreg free
  2216                           	line	235
  2217                           ;BootLoader.c: 235: goto WaitForBlock;
  2218  0003F0  D649               	goto	l2318
  2219                           	line	236
  2220                           	
  2221  0003F2                     l142:
  2222                           	line	91
  2223  0003F2  D648               	goto	l2318
  2224                           	
  2225  0003F4                     l143:
  2226                           	line	239
  2227                           	
  2228  0003F4                     l144:
  2229                           	global	start
  2230  0003F4  EF0E  F000         	goto	start
  2231                           	opt stack 0
  2232                           GLOBAL	__end_of_main
  2233  0003F8                     	__end_of_main:
  2234                           	signat	_main,88
  2235                           	global	_Set_Pins
  2236                           
  2237 ;; *************** function _Set_Pins *****************
  2238 ;; Defined at:
  2239 ;;		line 288 in file "C:\Users\THORAXIUM\Dropbox\EaglePCB\projects\Orbit\Firmware\Bootloader\BootLoader.c"
  2240 ;; Parameters:    Size  Location     Type
  2241 ;;		None
  2242 ;; Auto vars:     Size  Location     Type
  2243 ;;		None
  2244 ;; Return value:  Size  Location     Type
  2245 ;;		None               void
  2246 ;; Registers used:
  2247 ;;		wreg, status,2
  2248 ;; Tracked objects:
  2249 ;;		On entry : 0/0
  2250 ;;		On exit  : 0/0
  2251 ;;		Unchanged: 0/0
  2252 ;; Data sizes:     COMRAM   BANK0   BANK1   BANK2   BANK3   BANK4   BANK5   BANK6   BANK7   BANK8   BANK9  BANK10  BANK1
       1  BANK12  BANK13  BANK14  BANK15
  2253 ;;      Params:         0       0       0       0       0       0       0       0       0       0       0       0       
       0       0       0       0       0
  2254 ;;      Locals:         0       0       0       0       0       0       0       0       0       0       0       0       
       0       0       0       0       0
  2255 ;;      Temps:          0       0       0       0       0       0       0       0       0       0       0       0       
       0       0       0       0       0
  2256 ;;      Totals:         0       0       0       0       0       0       0       0       0       0       0       0       
       0       0       0       0       0
  2257 ;;Total ram usage:        0 bytes
  2258 ;; Hardware stack levels used:    1
  2259 ;; This function calls:
  2260 ;;		Nothing
  2261 ;; This function is called by:
  2262 ;;		_main
  2263 ;; This function uses a non-reentrant model
  2264 ;;
  2265                           psect	text1,class=CODE,space=0,reloc=2
  2266                           global __ptext1
  2267  0004C6                     __ptext1:
  2268                           psect	text1
  2269                           	file	"C:\Users\THORAXIUM\Dropbox\EaglePCB\projects\Orbit\Firmware\Bootloader\BootLoader
                                 .c"
  2270                           	line	288
  2271                           	global	__size_of_Set_Pins
  2272  0000                     	__size_of_Set_Pins	equ	__end_of_Set_Pins-_Set_Pins
  2273                           	
  2274  0004C6                     _Set_Pins:
  2275                           	opt	stack 30
  2276                           	line	298
  2277                           	
  2278  0004C6                     l2194:
  2279                           ;BootLoader.c: 298: LATA = 0b00000000;
  2280  0004C6  0E00               	movlw	low(0)
  2281  0004C8  6E89               	movwf	((c:3977)),c	;volatile
  2282                           	line	299
  2283                           ;BootLoader.c: 299: TRISA = 0b11100000;
  2284  0004CA  0EE0               	movlw	low(0E0h)
  2285  0004CC  6E92               	movwf	((c:3986)),c	;volatile
  2286                           	line	311
  2287                           ;BootLoader.c: 311: LATB = 0b00000000;
  2288  0004CE  0E00               	movlw	low(0)
  2289  0004D0  6E8A               	movwf	((c:3978)),c	;volatile
  2290                           	line	312
  2291                           ;BootLoader.c: 312: TRISB = 0b00111011;
  2292  0004D2  0E3B               	movlw	low(03Bh)
  2293  0004D4  6E93               	movwf	((c:3987)),c	;volatile
  2294                           	line	313
  2295                           	
  2296  0004D6                     l2196:
  2297                           ;BootLoader.c: 313: RBPU = 1;
  2298  0004D6  8EF1               	bsf	c:(32655/8),(32655)&7	;volatile
  2299                           	line	325
  2300                           ;BootLoader.c: 325: LATC = 0b00000000;
  2301  0004D8  0E00               	movlw	low(0)
  2302  0004DA  6E8B               	movwf	((c:3979)),c	;volatile
  2303                           	line	326
  2304                           ;BootLoader.c: 326: TRISC = 0b10000001;
  2305  0004DC  0E81               	movlw	low(081h)
  2306  0004DE  6E94               	movwf	((c:3988)),c	;volatile
  2307                           	line	337
  2308                           ;BootLoader.c: 337: LATD = 0b00000000;
  2309  0004E0  0E00               	movlw	low(0)
  2310  0004E2  6E8C               	movwf	((c:3980)),c	;volatile
  2311                           	line	338
  2312                           ;BootLoader.c: 338: TRISD = 0b01000000;
  2313  0004E4  0E40               	movlw	low(040h)
  2314  0004E6  6E95               	movwf	((c:3989)),c	;volatile
  2315                           	line	349
  2316                           ;BootLoader.c: 349: LATE = 0b00000000;
  2317  0004E8  0E00               	movlw	low(0)
  2318  0004EA  6E8D               	movwf	((c:3981)),c	;volatile
  2319                           	line	350
  2320                           ;BootLoader.c: 350: TRISE = 0b00100000;
  2321  0004EC  0E20               	movlw	low(020h)
  2322  0004EE  6E96               	movwf	((c:3990)),c	;volatile
  2323                           	line	361
  2324                           ;BootLoader.c: 361: LATF = 0b00000000;
  2325  0004F0  0E00               	movlw	low(0)
  2326  0004F2  6E8E               	movwf	((c:3982)),c	;volatile
  2327                           	line	362
  2328                           ;BootLoader.c: 362: TRISF = 0b11000010;
  2329  0004F4  0EC2               	movlw	low(0C2h)
  2330  0004F6  6E97               	movwf	((c:3991)),c	;volatile
  2331                           	line	373
  2332                           ;BootLoader.c: 373: LATG = 0b00000000;
  2333  0004F8  0E00               	movlw	low(0)
  2334  0004FA  6E8F               	movwf	((c:3983)),c	;volatile
  2335                           	line	374
  2336                           ;BootLoader.c: 374: TRISG = 0b00000000;
  2337  0004FC  0E00               	movlw	low(0)
  2338  0004FE  6E98               	movwf	((c:3992)),c	;volatile
  2339                           	line	378
  2340                           ;BootLoader.c: 378: ANCON0 = 0;
  2341  000500  0E00               	movlw	low(0)
  2342  000502  010F               	movlb	15	; () banked
  2343  000504  010F               	movlb	15	; () banked
  2344  000506  6F25               	movwf	((3877))&0ffh	;volatile
  2345                           	line	379
  2346                           ;BootLoader.c: 379: ANCON1 = 0;
  2347  000508  0E00               	movlw	low(0)
  2348  00050A  010F               	movlb	15	; () banked
  2349  00050C  010F               	movlb	15	; () banked
  2350  00050E  6F24               	movwf	((3876))&0ffh	;volatile
  2351                           	line	380
  2352                           ;BootLoader.c: 380: ANCON2 = 0;
  2353  000510  0E00               	movlw	low(0)
  2354  000512  010F               	movlb	15	; () banked
  2355  000514  010F               	movlb	15	; () banked
  2356  000516  6F23               	movwf	((3875))&0ffh	;volatile
  2357                           	line	383
  2358                           	
  2359  000518                     l2198:
  2360                           ;BootLoader.c: 383: ADON = 0;
  2361  000518  90C2               	bcf	c:(32272/8),(32272)&7	;volatile
  2362                           	line	384
  2363                           	
  2364  00051A                     l168:
  2365  00051A  0012               	return
  2366                           	opt stack 0
  2367                           GLOBAL	__end_of_Set_Pins
  2368  00051C                     	__end_of_Set_Pins:
  2369                           	signat	_Set_Pins,88
  2370                           	global	_Setup_UART
  2371                           
  2372 ;; *************** function _Setup_UART *****************
  2373 ;; Defined at:
  2374 ;;		line 387 in file "C:\Users\THORAXIUM\Dropbox\EaglePCB\projects\Orbit\Firmware\Bootloader\BootLoader.c"
  2375 ;; Parameters:    Size  Location     Type
  2376 ;;		None
  2377 ;; Auto vars:     Size  Location     Type
  2378 ;;		None
  2379 ;; Return value:  Size  Location     Type
  2380 ;;		None               void
  2381 ;; Registers used:
  2382 ;;		wreg, status,2
  2383 ;; Tracked objects:
  2384 ;;		On entry : 0/0
  2385 ;;		On exit  : 0/0
  2386 ;;		Unchanged: 0/0
  2387 ;; Data sizes:     COMRAM   BANK0   BANK1   BANK2   BANK3   BANK4   BANK5   BANK6   BANK7   BANK8   BANK9  BANK10  BANK1
       1  BANK12  BANK13  BANK14  BANK15
  2388 ;;      Params:         0       0       0       0       0       0       0       0       0       0       0       0       
       0       0       0       0       0
  2389 ;;      Locals:         0       0       0       0       0       0       0       0       0       0       0       0       
       0       0       0       0       0
  2390 ;;      Temps:          0       0       0       0       0       0       0       0       0       0       0       0       
       0       0       0       0       0
  2391 ;;      Totals:         0       0       0       0       0       0       0       0       0       0       0       0       
       0       0       0       0       0
  2392 ;;Total ram usage:        0 bytes
  2393 ;; Hardware stack levels used:    1
  2394 ;; This function calls:
  2395 ;;		Nothing
  2396 ;; This function is called by:
  2397 ;;		_main
  2398 ;; This function uses a non-reentrant model
  2399 ;;
  2400                           psect	text2,class=CODE,space=0,reloc=2
  2401                           global __ptext2
  2402  000564                     __ptext2:
  2403                           psect	text2
  2404                           	file	"C:\Users\THORAXIUM\Dropbox\EaglePCB\projects\Orbit\Firmware\Bootloader\BootLoader
                                 .c"
  2405                           	line	387
  2406                           	global	__size_of_Setup_UART
  2407  0000                     	__size_of_Setup_UART	equ	__end_of_Setup_UART-_Setup_UART
  2408                           	
  2409  000564                     _Setup_UART:
  2410                           	opt	stack 30
  2411                           	line	389
  2412                           	
  2413  000564                     l2200:
  2414                           ;BootLoader.c: 389: TRISCbits.TRISC7 = 1;
  2415  000564  8E94               	bsf	((c:3988)),c,7	;volatile
  2416                           	line	390
  2417                           ;BootLoader.c: 390: TRISCbits.TRISC6 = 0;
  2418  000566  9C94               	bcf	((c:3988)),c,6	;volatile
  2419                           	line	393
  2420                           ;BootLoader.c: 393: TXSTA1bits.BRGH = 1;
  2421  000568  84AC               	bsf	((c:4012)),c,2	;volatile
  2422                           	line	394
  2423                           ;BootLoader.c: 394: BAUDCON1bits.BRG16 = 1;
  2424  00056A  8665               	bsf	((c:3941)),c,3	;volatile
  2425                           	line	395
  2426                           ;BootLoader.c: 395: BAUDCON1bits.RXDTP = 0;
  2427  00056C  9A65               	bcf	((c:3941)),c,5	;volatile
  2428                           	line	396
  2429                           ;BootLoader.c: 396: BAUDCON1bits.TXCKP = 0;
  2430  00056E  9865               	bcf	((c:3941)),c,4	;volatile
  2431                           	line	397
  2432                           ;BootLoader.c: 397: BAUDCON1bits.WUE = 0;
  2433  000570  9265               	bcf	((c:3941)),c,1	;volatile
  2434                           	line	398
  2435                           ;BootLoader.c: 398: BAUDCON1bits.ABDEN = 0;
  2436  000572  9065               	bcf	((c:3941)),c,0	;volatile
  2437                           	line	406
  2438                           	
  2439  000574                     l2202:
  2440                           ;BootLoader.c: 406: SPBRGH1 = 0;
  2441  000574  0E00               	movlw	low(0)
  2442  000576  6ED4               	movwf	((c:4052)),c	;volatile
  2443                           	line	407
  2444                           ;BootLoader.c: 407: SPBRG1 = 137;
  2445  000578  0E89               	movlw	low(089h)
  2446  00057A  6EAF               	movwf	((c:4015)),c	;volatile
  2447                           	line	409
  2448                           	
  2449  00057C                     l2204:
  2450                           ;BootLoader.c: 409: TXSTA1bits.SYNC = 0;
  2451  00057C  98AC               	bcf	((c:4012)),c,4	;volatile
  2452                           	line	410
  2453                           	
  2454  00057E                     l2206:
  2455                           ;BootLoader.c: 410: RCSTA1bits.SPEN = 1;
  2456  00057E  8EAB               	bsf	((c:4011)),c,7	;volatile
  2457                           	line	412
  2458                           	
  2459  000580                     l2208:
  2460                           ;BootLoader.c: 412: TX1IE = 0;
  2461  000580  989D               	bcf	c:(31980/8),(31980)&7	;volatile
  2462                           	line	413
  2463                           	
  2464  000582                     l2210:
  2465                           ;BootLoader.c: 413: TXSTA1bits.TX9 = 0;
  2466  000582  9CAC               	bcf	((c:4012)),c,6	;volatile
  2467                           	line	414
  2468                           	
  2469  000584                     l2212:
  2470                           ;BootLoader.c: 414: TXSTA1bits.TXEN = 1;
  2471  000584  8AAC               	bsf	((c:4012)),c,5	;volatile
  2472                           	line	416
  2473                           	
  2474  000586                     l2214:
  2475                           ;BootLoader.c: 416: RC1IE = 0;
  2476  000586  9A9D               	bcf	c:(31981/8),(31981)&7	;volatile
  2477                           	line	417
  2478                           	
  2479  000588                     l2216:
  2480                           ;BootLoader.c: 417: RCSTA1bits.RC9 = 0;
  2481  000588  9CAB               	bcf	((c:4011)),c,6	;volatile
  2482                           	line	418
  2483                           	
  2484  00058A                     l2218:
  2485                           ;BootLoader.c: 418: RCSTA1bits.CREN = 1;
  2486  00058A  88AB               	bsf	((c:4011)),c,4	;volatile
  2487                           	line	419
  2488                           	
  2489  00058C                     l171:
  2490  00058C  0012               	return
  2491                           	opt stack 0
  2492                           GLOBAL	__end_of_Setup_UART
  2493  00058E                     	__end_of_Setup_UART:
  2494                           	signat	_Setup_UART,88
  2495                           	global	_Delay_ms
  2496                           
  2497 ;; *************** function _Delay_ms *****************
  2498 ;; Defined at:
  2499 ;;		line 422 in file "C:\Users\THORAXIUM\Dropbox\EaglePCB\projects\Orbit\Firmware\Bootloader\BootLoader.c"
  2500 ;; Parameters:    Size  Location     Type
  2501 ;;  ms              2    0[COMRAM] int 
  2502 ;; Auto vars:     Size  Location     Type
  2503 ;;  temp            2    5[COMRAM] int 
  2504 ;;  idx             2    3[COMRAM] int 
  2505 ;; Return value:  Size  Location     Type
  2506 ;;		None               void
  2507 ;; Registers used:
  2508 ;;		wreg, status,2, status,0
  2509 ;; Tracked objects:
  2510 ;;		On entry : 0/0
  2511 ;;		On exit  : 0/0
  2512 ;;		Unchanged: 0/0
  2513 ;; Data sizes:     COMRAM   BANK0   BANK1   BANK2   BANK3   BANK4   BANK5   BANK6   BANK7   BANK8   BANK9  BANK10  BANK1
       1  BANK12  BANK13  BANK14  BANK15
  2514 ;;      Params:         2       0       0       0       0       0       0       0       0       0       0       0       
       0       0       0       0       0
  2515 ;;      Locals:         4       0       0       0       0       0       0       0       0       0       0       0       
       0       0       0       0       0
  2516 ;;      Temps:          1       0       0       0       0       0       0       0       0       0       0       0       
       0       0       0       0       0
  2517 ;;      Totals:         7       0       0       0       0       0       0       0       0       0       0       0       
       0       0       0       0       0
  2518 ;;Total ram usage:        7 bytes
  2519 ;; Hardware stack levels used:    1
  2520 ;; This function calls:
  2521 ;;		Nothing
  2522 ;; This function is called by:
  2523 ;;		_main
  2524 ;; This function uses a non-reentrant model
  2525 ;;
  2526                           psect	text3,class=CODE,space=0,reloc=2
  2527                           global __ptext3
  2528  0003F8                     __ptext3:
  2529                           psect	text3
  2530                           	file	"C:\Users\THORAXIUM\Dropbox\EaglePCB\projects\Orbit\Firmware\Bootloader\BootLoader
                                 .c"
  2531                           	line	422
  2532                           	global	__size_of_Delay_ms
  2533  0000                     	__size_of_Delay_ms	equ	__end_of_Delay_ms-_Delay_ms
  2534                           	
  2535  0003F8                     _Delay_ms:
  2536                           	opt	stack 30
  2537                           	line	426
  2538                           	
  2539  0003F8                     l2220:
  2540                           ;BootLoader.c: 423: int idx;
  2541                           ;BootLoader.c: 424: int temp;
  2542                           ;BootLoader.c: 426: for (idx=0;idx<ms;idx++)
  2543  0003F8  0E00               	movlw	high(0)
  2544  0003FA  6E05               	movwf	((c:Delay_ms@idx+1)),c
  2545  0003FC  0E00               	movlw	low(0)
  2546  0003FE  6E04               	movwf	((c:Delay_ms@idx)),c
  2547  000400  D021               	goto	l2234
  2548                           	line	427
  2549                           	
  2550  000402                     l175:
  2551                           	line	429
  2552                           	
  2553  000402                     l2222:
  2554                           ;BootLoader.c: 427: {
  2555                           ;BootLoader.c: 429: for (temp=0;temp<1454;temp++) asm(" nop");
  2556  000402  0E00               	movlw	high(0)
  2557  000404  6E07               	movwf	((c:Delay_ms@temp+1)),c
  2558  000406  0E00               	movlw	low(0)
  2559  000408  6E06               	movwf	((c:Delay_ms@temp)),c
  2560                           	
  2561  00040A                     l2224:
  2562  00040A  5007               	movf	((c:Delay_ms@temp+1)),c,w
  2563  00040C  0A80               	xorlw	80h
  2564  00040E  0F7B               	addlw	-((05h)^80h)
  2565  000410  0EAE               	movlw	0AEh
  2566  000412  B4D8               	btfsc	status,2
  2567  000414  5C06               	subwf	((c:Delay_ms@temp)),c,w
  2568  000416  A0D8               	btfss	status,0
  2569  000418  D001               	goto	u2141
  2570  00041A  D001               	goto	u2140
  2571  00041C                     u2141:
  2572  00041C  D002               	goto	l176
  2573  00041E                     u2140:
  2574  00041E  D00F               	goto	l2232
  2575                           	
  2576  000420                     l2226:
  2577  000420  D00E               	goto	l2232
  2578                           	
  2579  000422                     l176:
  2580                           # 429 "C:\Users\THORAXIUM\Dropbox\EaglePCB\projects\Orbit\Firmware\Bootloader\BootLoader
                                 .c"
  2581  000422  F000               nop ;# 
  2582                           psect	text3
  2583                           	
  2584  000424                     l2228:
  2585  000424  4A06               	infsnz	((c:Delay_ms@temp)),c
  2586  000426  2A07               	incf	((c:Delay_ms@temp+1)),c
  2587                           	
  2588  000428                     l2230:
  2589  000428  5007               	movf	((c:Delay_ms@temp+1)),c,w
  2590  00042A  0A80               	xorlw	80h
  2591  00042C  0F7B               	addlw	-((05h)^80h)
  2592  00042E  0EAE               	movlw	0AEh
  2593  000430  B4D8               	btfsc	status,2
  2594  000432  5C06               	subwf	((c:Delay_ms@temp)),c,w
  2595  000434  A0D8               	btfss	status,0
  2596  000436  D001               	goto	u2151
  2597  000438  D001               	goto	u2150
  2598  00043A                     u2151:
  2599  00043A  D7F3               	goto	l176
  2600  00043C                     u2150:
  2601  00043C  D000               	goto	l2232
  2602                           	
  2603  00043E                     l177:
  2604                           	line	426
  2605                           	
  2606  00043E                     l2232:
  2607  00043E  4A04               	infsnz	((c:Delay_ms@idx)),c
  2608  000440  2A05               	incf	((c:Delay_ms@idx+1)),c
  2609  000442  D000               	goto	l2234
  2610                           	
  2611  000444                     l174:
  2612                           	
  2613  000444                     l2234:
  2614  000444  5005               	movf	((c:Delay_ms@idx+1)),c,w
  2615  000446  0A80               	xorlw	80h
  2616  000448  6E03               	movwf	(??_Delay_ms+0+0)&0ffh,c
  2617  00044A  5001               	movf	((c:Delay_ms@ms)),c,w
  2618  00044C  5C04               	subwf	((c:Delay_ms@idx)),c,w
  2619  00044E  5002               	movf	((c:Delay_ms@ms+1)),c,w
  2620  000450  0A80               	xorlw	80h
  2621  000452  5803               	subwfb	(??_Delay_ms+0+0)&0ffh,c,w
  2622  000454  A0D8               	btfss	status,0
  2623  000456  D001               	goto	u2161
  2624  000458  D001               	goto	u2160
  2625  00045A                     u2161:
  2626  00045A  D7D3               	goto	l2222
  2627  00045C                     u2160:
  2628  00045C  D000               	goto	l179
  2629                           	
  2630  00045E                     l178:
  2631                           	line	432
  2632                           ;BootLoader.c: 430: }
  2633                           ;BootLoader.c: 431: return;
  2634                           	
  2635  00045E                     l179:
  2636  00045E  0012               	return
  2637                           	opt stack 0
  2638                           GLOBAL	__end_of_Delay_ms
  2639  000460                     	__end_of_Delay_ms:
  2640                           	signat	_Delay_ms,4216
  2641                           	global	_putc
  2642                           
  2643 ;; *************** function _putc *****************
  2644 ;; Defined at:
  2645 ;;		line 243 in file "C:\Users\THORAXIUM\Dropbox\EaglePCB\projects\Orbit\Firmware\Bootloader\BootLoader.c"
  2646 ;; Parameters:    Size  Location     Type
  2647 ;;  dat             1    0[COMRAM] unsigned char 
  2648 ;; Auto vars:     Size  Location     Type
  2649 ;;		None
  2650 ;; Return value:  Size  Location     Type
  2651 ;;		None               void
  2652 ;; Registers used:
  2653 ;;		None
  2654 ;; Tracked objects:
  2655 ;;		On entry : 0/0
  2656 ;;		On exit  : 0/0
  2657 ;;		Unchanged: 0/0
  2658 ;; Data sizes:     COMRAM   BANK0   BANK1   BANK2   BANK3   BANK4   BANK5   BANK6   BANK7   BANK8   BANK9  BANK10  BANK1
       1  BANK12  BANK13  BANK14  BANK15
  2659 ;;      Params:         1       0       0       0       0       0       0       0       0       0       0       0       
       0       0       0       0       0
  2660 ;;      Locals:         0       0       0       0       0       0       0       0       0       0       0       0       
       0       0       0       0       0
  2661 ;;      Temps:          0       0       0       0       0       0       0       0       0       0       0       0       
       0       0       0       0       0
  2662 ;;      Totals:         1       0       0       0       0       0       0       0       0       0       0       0       
       0       0       0       0       0
  2663 ;;Total ram usage:        1 bytes
  2664 ;; Hardware stack levels used:    1
  2665 ;; This function calls:
  2666 ;;		Nothing
  2667 ;; This function is called by:
  2668 ;;		_main
  2669 ;; This function uses a non-reentrant model
  2670 ;;
  2671                           psect	text4,class=CODE,space=0,reloc=2
  2672                           global __ptext4
  2673  00058E                     __ptext4:
  2674                           psect	text4
  2675                           	file	"C:\Users\THORAXIUM\Dropbox\EaglePCB\projects\Orbit\Firmware\Bootloader\BootLoader
                                 .c"
  2676                           	line	243
  2677                           	global	__size_of_putc
  2678  0000                     	__size_of_putc	equ	__end_of_putc-_putc
  2679                           	
  2680  00058E                     _putc:
  2681                           	opt	stack 30
  2682                           	line	244
  2683                           	
  2684  00058E                     l2250:
  2685                           ;BootLoader.c: 244: while (TXSTA1bits.TRMT==0) asm(" nop");
  2686  00058E  D001               	goto	l147
  2687                           	
  2688  000590                     l148:
  2689                           # 244 "C:\Users\THORAXIUM\Dropbox\EaglePCB\projects\Orbit\Firmware\Bootloader\BootLoader
                                 .c"
  2690  000590  F000               nop ;# 
  2691                           psect	text4
  2692                           	
  2693  000592                     l147:
  2694                           	
  2695  000592  A2AC               	btfss	((c:4012)),c,1	;volatile
  2696  000594  D001               	goto	u2191
  2697  000596  D001               	goto	u2190
  2698  000598                     u2191:
  2699  000598  D7FB               	goto	l148
  2700  00059A                     u2190:
  2701                           	
  2702  00059A                     l149:
  2703                           	line	245
  2704                           ;BootLoader.c: 245: TXREG=dat;
  2705  00059A  C001  FFAD         	movff	(c:putc@dat),(c:4013)	;volatile
  2706                           	line	246
  2707                           	
  2708  00059E                     l150:
  2709  00059E  0012               	return
  2710                           	opt stack 0
  2711                           GLOBAL	__end_of_putc
  2712  0005A0                     	__end_of_putc:
  2713                           	signat	_putc,4216
  2714                           	global	_gethex
  2715                           
  2716 ;; *************** function _gethex *****************
  2717 ;; Defined at:
  2718 ;;		line 269 in file "C:\Users\THORAXIUM\Dropbox\EaglePCB\projects\Orbit\Firmware\Bootloader\BootLoader.c"
  2719 ;; Parameters:    Size  Location     Type
  2720 ;;		None
  2721 ;; Auto vars:     Size  Location     Type
  2722 ;;  temp            1    2[COMRAM] unsigned char 
  2723 ;; Return value:  Size  Location     Type
  2724 ;;                  1    wreg      char 
  2725 ;; Registers used:
  2726 ;;		wreg, status,2, status,0, cstack
  2727 ;; Tracked objects:
  2728 ;;		On entry : 0/0
  2729 ;;		On exit  : 0/0
  2730 ;;		Unchanged: 0/0
  2731 ;; Data sizes:     COMRAM   BANK0   BANK1   BANK2   BANK3   BANK4   BANK5   BANK6   BANK7   BANK8   BANK9  BANK10  BANK1
       1  BANK12  BANK13  BANK14  BANK15
  2732 ;;      Params:         0       0       0       0       0       0       0       0       0       0       0       0       
       0       0       0       0       0
  2733 ;;      Locals:         1       0       0       0       0       0       0       0       0       0       0       0       
       0       0       0       0       0
  2734 ;;      Temps:          0       0       0       0       0       0       0       0       0       0       0       0       
       0       0       0       0       0
  2735 ;;      Totals:         1       0       0       0       0       0       0       0       0       0       0       0       
       0       0       0       0       0
  2736 ;;Total ram usage:        1 bytes
  2737 ;; Hardware stack levels used:    1
  2738 ;; Hardware stack levels required when called:    1
  2739 ;; This function calls:
  2740 ;;		_getc
  2741 ;; This function is called by:
  2742 ;;		_main
  2743 ;; This function uses a non-reentrant model
  2744 ;;
  2745                           psect	text5,class=CODE,space=0,reloc=2
  2746                           global __ptext5
  2747  000460                     __ptext5:
  2748                           psect	text5
  2749                           	file	"C:\Users\THORAXIUM\Dropbox\EaglePCB\projects\Orbit\Firmware\Bootloader\BootLoader
                                 .c"
  2750                           	line	269
  2751                           	global	__size_of_gethex
  2752  0000                     	__size_of_gethex	equ	__end_of_gethex-_gethex
  2753                           	
  2754  000460                     _gethex:
  2755                           	opt	stack 29
  2756                           	line	271
  2757                           	
  2758  000460                     l2252:
  2759                           ;BootLoader.c: 270: unsigned char temp;
  2760                           ;BootLoader.c: 271: temp=getc();
  2761  000460  EC8E  F002         	call	_getc	;wreg free
  2762  000464  6E03               	movwf	((c:gethex@temp)),c
  2763                           	line	272
  2764                           	
  2765  000466                     l2254:
  2766                           ;BootLoader.c: 272: if (temp==0) return(-1);
  2767  000466  6603               	tstfsz	((c:gethex@temp)),c
  2768  000468  D001               	goto	u2201
  2769  00046A  D001               	goto	u2200
  2770  00046C                     u2201:
  2771  00046C  D003               	goto	l2260
  2772  00046E                     u2200:
  2773                           	
  2774  00046E                     l2256:
  2775  00046E  0EFF               	movlw	(-1)&0ffh
  2776  000470  D029               	goto	l161
  2777                           	
  2778  000472                     l2258:
  2779  000472  D028               	goto	l161
  2780                           	
  2781  000474                     l160:
  2782                           	line	273
  2783                           	
  2784  000474                     l2260:
  2785                           ;BootLoader.c: 273: if (temp<'0') return(-1);
  2786  000474  0E30               	movlw	(030h)&0ffh
  2787  000476  6003               	cpfslt	((c:gethex@temp)),c
  2788  000478  D001               	goto	u2211
  2789  00047A  D001               	goto	u2210
  2790  00047C                     u2211:
  2791  00047C  D003               	goto	l2266
  2792  00047E                     u2210:
  2793                           	
  2794  00047E                     l2262:
  2795  00047E  0EFF               	movlw	(-1)&0ffh
  2796  000480  D021               	goto	l161
  2797                           	
  2798  000482                     l2264:
  2799  000482  D020               	goto	l161
  2800                           	
  2801  000484                     l162:
  2802                           	line	274
  2803                           	
  2804  000484                     l2266:
  2805                           ;BootLoader.c: 274: if (temp>'@')
  2806  000484  0E40               	movlw	(041h-1)
  2807  000486  6403               	cpfsgt	((c:gethex@temp)),c
  2808  000488  D001               	goto	u2221
  2809  00048A  D001               	goto	u2220
  2810  00048C                     u2221:
  2811  00048C  D00F               	goto	l2280
  2812  00048E                     u2220:
  2813                           	line	276
  2814                           	
  2815  00048E                     l2268:
  2816                           ;BootLoader.c: 275: {
  2817                           ;BootLoader.c: 276: temp-='A';
  2818  00048E  0E41               	movlw	(041h)&0ffh
  2819  000490  5E03               	subwf	((c:gethex@temp)),c
  2820                           	line	277
  2821                           ;BootLoader.c: 277: temp+=10;
  2822  000492  0E0A               	movlw	(0Ah)&0ffh
  2823  000494  2603               	addwf	((c:gethex@temp)),c
  2824                           	line	278
  2825                           	
  2826  000496                     l2270:
  2827                           ;BootLoader.c: 278: if (temp>15) return(-1);
  2828  000496  0E0F               	movlw	(010h-1)
  2829  000498  6403               	cpfsgt	((c:gethex@temp)),c
  2830  00049A  D001               	goto	u2231
  2831  00049C  D001               	goto	u2230
  2832  00049E                     u2231:
  2833  00049E  D003               	goto	l2276
  2834  0004A0                     u2230:
  2835                           	
  2836  0004A0                     l2272:
  2837  0004A0  0EFF               	movlw	(-1)&0ffh
  2838  0004A2  D010               	goto	l161
  2839                           	
  2840  0004A4                     l2274:
  2841  0004A4  D00F               	goto	l161
  2842                           	
  2843  0004A6                     l164:
  2844                           	line	279
  2845                           	
  2846  0004A6                     l2276:
  2847                           ;BootLoader.c: 279: return(temp);
  2848  0004A6  5003               	movf	((c:gethex@temp)),c,w
  2849  0004A8  D00D               	goto	l161
  2850                           	
  2851  0004AA                     l2278:
  2852  0004AA  D00C               	goto	l161
  2853                           	line	280
  2854                           	
  2855  0004AC                     l163:
  2856                           	line	281
  2857                           	
  2858  0004AC                     l2280:
  2859                           ;BootLoader.c: 280: }
  2860                           ;BootLoader.c: 281: temp-='0';
  2861  0004AC  0E30               	movlw	(030h)&0ffh
  2862  0004AE  5E03               	subwf	((c:gethex@temp)),c
  2863                           	line	282
  2864                           	
  2865  0004B0                     l2282:
  2866                           ;BootLoader.c: 282: if (temp>9) return(-1);
  2867  0004B0  0E09               	movlw	(0Ah-1)
  2868  0004B2  6403               	cpfsgt	((c:gethex@temp)),c
  2869  0004B4  D001               	goto	u2241
  2870  0004B6  D001               	goto	u2240
  2871  0004B8                     u2241:
  2872  0004B8  D003               	goto	l2288
  2873  0004BA                     u2240:
  2874                           	
  2875  0004BA                     l2284:
  2876  0004BA  0EFF               	movlw	(-1)&0ffh
  2877  0004BC  D003               	goto	l161
  2878                           	
  2879  0004BE                     l2286:
  2880  0004BE  D002               	goto	l161
  2881                           	
  2882  0004C0                     l165:
  2883                           	line	283
  2884                           	
  2885  0004C0                     l2288:
  2886                           ;BootLoader.c: 283: return(temp);
  2887  0004C0  5003               	movf	((c:gethex@temp)),c,w
  2888  0004C2  D000               	goto	l161
  2889                           	
  2890  0004C4                     l2290:
  2891                           	line	284
  2892                           	
  2893  0004C4                     l161:
  2894  0004C4  0012               	return
  2895                           	opt stack 0
  2896                           GLOBAL	__end_of_gethex
  2897  0004C6                     	__end_of_gethex:
  2898                           	signat	_gethex,89
  2899                           	global	_getc
  2900                           
  2901 ;; *************** function _getc *****************
  2902 ;; Defined at:
  2903 ;;		line 249 in file "C:\Users\THORAXIUM\Dropbox\EaglePCB\projects\Orbit\Firmware\Bootloader\BootLoader.c"
  2904 ;; Parameters:    Size  Location     Type
  2905 ;;		None
  2906 ;; Auto vars:     Size  Location     Type
  2907 ;;  temp            1    1[COMRAM] unsigned char 
  2908 ;; Return value:  Size  Location     Type
  2909 ;;                  1    wreg      unsigned char 
  2910 ;; Registers used:
  2911 ;;		wreg, status,2, status,0
  2912 ;; Tracked objects:
  2913 ;;		On entry : 0/0
  2914 ;;		On exit  : 0/0
  2915 ;;		Unchanged: 0/0
  2916 ;; Data sizes:     COMRAM   BANK0   BANK1   BANK2   BANK3   BANK4   BANK5   BANK6   BANK7   BANK8   BANK9  BANK10  BANK1
       1  BANK12  BANK13  BANK14  BANK15
  2917 ;;      Params:         0       0       0       0       0       0       0       0       0       0       0       0       
       0       0       0       0       0
  2918 ;;      Locals:         1       0       0       0       0       0       0       0       0       0       0       0       
       0       0       0       0       0
  2919 ;;      Temps:          1       0       0       0       0       0       0       0       0       0       0       0       
       0       0       0       0       0
  2920 ;;      Totals:         2       0       0       0       0       0       0       0       0       0       0       0       
       0       0       0       0       0
  2921 ;;Total ram usage:        2 bytes
  2922 ;; Hardware stack levels used:    1
  2923 ;; This function calls:
  2924 ;;		Nothing
  2925 ;; This function is called by:
  2926 ;;		_main
  2927 ;;		_gethex
  2928 ;; This function uses a non-reentrant model
  2929 ;;
  2930                           psect	text6,class=CODE,space=0,reloc=2
  2931                           global __ptext6
  2932  00051C                     __ptext6:
  2933                           psect	text6
  2934                           	file	"C:\Users\THORAXIUM\Dropbox\EaglePCB\projects\Orbit\Firmware\Bootloader\BootLoader
                                 .c"
  2935                           	line	249
  2936                           	global	__size_of_getc
  2937  0000                     	__size_of_getc	equ	__end_of_getc-_getc
  2938                           	
  2939  00051C                     _getc:
  2940                           	opt	stack 29
  2941                           	line	250
  2942                           	
  2943  00051C                     l2236:
  2944                           ;BootLoader.c: 250: unsigned char temp=0;
  2945  00051C  6E01               	movwf	(??_getc+0+0)&0ffh,c
  2946  00051E  0E00               	movlw	low(0)
  2947  000520  6E02               	movwf	((c:getc@temp)),c
  2948  000522  5001               	movf	(??_getc+0+0)&0ffh,c,w
  2949                           	line	251
  2950                           ;BootLoader.c: 251: while(!RC1IF)
  2951  000524  D016               	goto	l153
  2952                           	
  2953  000526                     l154:
  2954                           	line	254
  2955                           	
  2956  000526                     l2238:
  2957                           ;BootLoader.c: 252: {
  2958                           ;BootLoader.c: 254: if ((RCSTA1bits.OERR) | (RCSTA1bits.FERR))
  2959  000526  30AB               	rrcf	((c:4011)),c,w	;volatile
  2960  000528  32E8               	rrcf	wreg,f
  2961  00052A  0B01               	andlw	(1<<1)-1
  2962  00052C  6E01               	movwf	(??_getc+0+0)&0ffh,c
  2963  00052E  30AB               	rrcf	((c:4011)),c,w	;volatile
  2964  000530  0B01               	andlw	(1<<1)-1
  2965  000532  1001               	iorwf	((??_getc+0+0)),c,w
  2966  000534  0900               	iorlw	0
  2967  000536  B4D8               	btfsc	status,2
  2968  000538  D001               	goto	u2171
  2969  00053A  D001               	goto	u2170
  2970  00053C                     u2171:
  2971  00053C  D00A               	goto	l153
  2972  00053E                     u2170:
  2973                           	line	256
  2974                           	
  2975  00053E                     l2240:
  2976                           ;BootLoader.c: 255: {
  2977                           ;BootLoader.c: 256: RCSTA1bits.CREN=0;
  2978  00053E  98AB               	bcf	((c:4011)),c,4	;volatile
  2979                           	line	257
  2980                           # 257 "C:\Users\THORAXIUM\Dropbox\EaglePCB\projects\Orbit\Firmware\Bootloader\BootLoader
                                 .c"
  2981  000540  F000               nop ;# 
  2982                           psect	text6
  2983                           	line	258
  2984                           ;BootLoader.c: 258: RCSTA1bits.CREN=1;
  2985  000542  88AB               	bsf	((c:4011)),c,4	;volatile
  2986                           	line	259
  2987                           ;BootLoader.c: 259: temp=RCREG;
  2988  000544  CFAE F002          	movff	(c:4014),(c:getc@temp)	;volatile
  2989                           	line	260
  2990                           ;BootLoader.c: 260: temp=RCREG;
  2991  000548  CFAE F002          	movff	(c:4014),(c:getc@temp)	;volatile
  2992                           	line	261
  2993                           	
  2994  00054C                     l2242:
  2995                           ;BootLoader.c: 261: return(0);
  2996  00054C  0E00               	movlw	(0)&0ffh
  2997  00054E  D009               	goto	l156
  2998                           	
  2999  000550                     l2244:
  3000  000550  D008               	goto	l156
  3001                           	line	262
  3002                           	
  3003  000552                     l155:
  3004                           	line	263
  3005                           	
  3006  000552                     l153:
  3007                           	line	251
  3008  000552  AA9E               	btfss	c:(31989/8),(31989)&7	;volatile
  3009  000554  D001               	goto	u2181
  3010  000556  D001               	goto	u2180
  3011  000558                     u2181:
  3012  000558  D7E6               	goto	l2238
  3013  00055A                     u2180:
  3014                           	
  3015  00055A                     l157:
  3016                           	line	264
  3017                           ;BootLoader.c: 262: }
  3018                           ;BootLoader.c: 263: }
  3019                           ;BootLoader.c: 264: temp=RCREG;
  3020  00055A  CFAE F002          	movff	(c:4014),(c:getc@temp)	;volatile
  3021                           	line	265
  3022                           	
  3023  00055E                     l2246:
  3024                           ;BootLoader.c: 265: return (temp);
  3025  00055E  5002               	movf	((c:getc@temp)),c,w
  3026  000560  D000               	goto	l156
  3027                           	
  3028  000562                     l2248:
  3029                           	line	266
  3030                           	
  3031  000562                     l156:
  3032  000562  0012               	return
  3033                           	opt stack 0
  3034                           GLOBAL	__end_of_getc
  3035  000564                     	__end_of_getc:
  3036                           	signat	_getc,89
  3037                           	GLOBAL	__activetblptr
  3038  0000                     __activetblptr	EQU	0
  3039                           	psect	intsave_regs,class=BIGRAM,space=1
  3040                           psect	text7,class=CODE,space=0,reloc=2
  3041                           global __ptext7
  3042  000000                     __ptext7:
  3043                           	PSECT	rparam,class=COMRAM,space=1
  3044                           	GLOBAL	__Lrparam
  3045                           	FNCONF	rparam,??,?
  3046                           GLOBAL	__Lparam, __Hparam
  3047                           GLOBAL	__Lrparam, __Hrparam
  3048  0000                     __Lparam	EQU	__Lrparam
  3049  0000                     __Hparam	EQU	__Hrparam


Data Sizes:
    Strings     0
    Constant    0
    Data        0
    BSS         0
    Persistent  0
    Stack       0

Auto Spaces:
    Space          Size  Autos    Used
    COMRAM           95      8       8
    BANK0           160    139     139
    BANK1           256      0       0
    BANK2           256      0       0
    BANK3           256      0       0
    BANK4           256      0       0
    BANK5           256      0       0
    BANK6           256      0       0
    BANK7           256      0       0
    BANK8           256      0       0
    BANK9           256      0       0
    BANK10          256      0       0
    BANK11          256      0       0
    BANK12          256      0       0
    BANK13          256      0       0
    BANK14          256      0       0
    BANK15           22      0       0

Pointer List with Targets:

    None.

Critical Paths under _main in COMRAM

    _main->_Delay_ms
    _gethex->_getc

Critical Paths under _main in BANK0

    None.

Critical Paths under _main in BANK1

    None.

Critical Paths under _main in BANK2

    None.

Critical Paths under _main in BANK3

    None.

Critical Paths under _main in BANK4

    None.

Critical Paths under _main in BANK5

    None.

Critical Paths under _main in BANK6

    None.

Critical Paths under _main in BANK7

    None.

Critical Paths under _main in BANK8

    None.

Critical Paths under _main in BANK9

    None.

Critical Paths under _main in BANK10

    None.

Critical Paths under _main in BANK11

    None.

Critical Paths under _main in BANK12

    None.

Critical Paths under _main in BANK13

    None.

Critical Paths under _main in BANK14

    None.

Critical Paths under _main in BANK15

    None.

Call Graph Tables:

 ---------------------------------------------------------------------------------
 (Depth) Function   	        Calls       Base Space   Used Autos Params    Refs
 ---------------------------------------------------------------------------------
 (0) _main                                               142   142      0    1195
                                              7 COMRAM     1     1      0
                                              0 BANK0    139   139      0
                           _Set_Pins
                         _Setup_UART
                           _Delay_ms
                               _getc
                               _putc
                             _gethex
 ---------------------------------------------------------------------------------
 (1) _Set_Pins                                             0     0      0       0
 ---------------------------------------------------------------------------------
 (1) _Setup_UART                                           0     0      0       0
 ---------------------------------------------------------------------------------
 (1) _Delay_ms                                             7     5      2      92
                                              0 COMRAM     7     5      2
 ---------------------------------------------------------------------------------
 (1) _putc                                                 1     0      1      22
                                              0 COMRAM     1     0      1
 ---------------------------------------------------------------------------------
 (1) _gethex                                               1     1      0     184
                                              2 COMRAM     1     1      0
                               _getc
 ---------------------------------------------------------------------------------
 (2) _getc                                                 2     2      0      26
                                              0 COMRAM     2     2      0
 ---------------------------------------------------------------------------------
 Estimated maximum stack depth 2
 ---------------------------------------------------------------------------------

 Call Graph Graphs:

 _main (ROOT)
   _Set_Pins
   _Setup_UART
   _Delay_ms
   _getc
   _putc
   _gethex
     _getc

 Address spaces:
Name               Size   Autos  Total    Cost      Usage
BITCOMRAM           5F      0       0       0        0.0%
EEDATA             400      0       0       0        0.0%
NULL                 0      0       0       0        0.0%
CODE                 0      0       0       0        0.0%
COMRAM              5F      8       8       1        8.4%
STACK                0      0       2       2        0.0%
DATA                 0      0       0       3        0.0%
BITBANK0            A0      0       0       4        0.0%
BANK0               A0     8B      8B       5       86.9%
BITBANK1           100      0       0       6        0.0%
BANK1              100      0       0       7        0.0%
BITBANK2           100      0       0       8        0.0%
BANK2              100      0       0       9        0.0%
BITBANK3           100      0       0      10        0.0%
BANK3              100      0       0      11        0.0%
ABS                  0      0       0      12        0.0%
BITBANK4           100      0       0      13        0.0%
BANK4              100      0       0      14        0.0%
BITBANK5           100      0       0      15        0.0%
BANK5              100      0       0      16        0.0%
BITBANK6           100      0       0      17        0.0%
BANK6              100      0       0      18        0.0%
BITBANK7           100      0       0      19        0.0%
BANK7              100      0       0      20        0.0%
BITBANK8           100      0       0      21        0.0%
BANK8              100      0       0      22        0.0%
BITBANK9           100      0       0      23        0.0%
BANK9              100      0       0      24        0.0%
BITBANK10          100      0       0      25        0.0%
BANK10             100      0       0      26        0.0%
BITBANK11          100      0       0      27        0.0%
BANK11             100      0       0      28        0.0%
BITBANK12          100      0       0      29        0.0%
BANK12             100      0       0      30        0.0%
BITBANK13          100      0       0      31        0.0%
BANK13             100      0       0      32        0.0%
BITBANK14          100      0       0      33        0.0%
BANK14             100      0       0      34        0.0%
BITBANK15           16      0       0      35        0.0%
BANK15              16      0       0      36        0.0%
BIGRAM             F15      0       0      37        0.0%
BITSFR_1             0      0       0      40        0.0%
SFR_1                0      0       0      40        0.0%
BITSFR               0      0       0      40        0.0%
SFR                  0      0       0      40        0.0%


HI-TECH Software PICC-18 Macro Assembler V9.80 build 11162 
Symbol Table                                                                                   Wed Oct 22 21:46:44 2014

         main@CheckSum 00E1                    l101 0072                    l110 0092  
                  l111 00F8                    l103 006E                    l120 016A  
                  l112 0096                    l104 0080                    l121 0192  
                  l113 00A4                    l105 0082                    l130 0340  
                  l122 01BC                    l114 00BC                    l106 0084  
                  l131 035E                    l123 0200                    l107 00D2  
                  l115 00C2                    l132 03D6                    l140 03CE  
                  l124 028E                    l116 00FA                    l108 0090  
                  l141 03CC                    l133 0370                    l125 021C  
                  l117 00FC                    l109 00FC                    l150 059E  
                  l142 03F2                    l134 03D4                    l126 0244  
                  l118 0140                    l143 03F4                    l119 03E4  
                  l135 0384                    l127 02BC                    l160 0474  
                  l144 03F4                    l136 03D2                    l128 02EC  
                  l153 0552                    l161 04C4                    l137 0398  
                  l129 031E                    l154 0526                    l162 0484  
                  l138 03D0                    l155 0552                    l163 04AC  
                  l147 0592                    l171 058C                    l139 03AC  
                  l156 0562                    l164 04A6                    l148 0590  
                  l157 055A                    l165 04C0                    l149 059A  
                  l174 0444                    l175 0402                    l176 0422  
                  l168 051A                    l177 043E                    l178 045E  
                  l179 045E                    wreg 000FE8             _TXSTA1bits 000FAC  
                 l2200 0564                   l2210 0582                   l2202 0574  
                 l2220 03F8                   l2212 0584                   l2204 057C  
                 l2300 0044                   l2230 0428                   l2222 0402  
                 l2214 0586                   l2206 057E                   l2310 0050  
                 l2302 0048                   l2240 053E                   l2232 043E  
                 l2224 040A                   l2216 0588                   l2208 0580  
                 l2400 02AC                   l2320 0096                   l2312 0052  
                 l2304 004A                   l2242 054C                   l2250 058E  
                 l2226 0420                   l2234 0444                   l2218 058A  
                 l2410 02DA                   l2402 02AE                   l2330 00FE  
                 l2322 00AE                   l2314 005E                   l2306 004C  
                 l2244 0550                   l2236 051C                   l2260 0474  
                 l2252 0460                   l2228 0424                   l2420 0310  
                 l2412 02EA                   l2404 02B0                   l2340 0140  
                 l2332 010A                   l2324 00C2                   l2316 0066  
                 l2308 004E                   l2246 055E                   l2238 0526  
                 l2270 0496                   l2262 047E                   l2254 0466  
                 l2430 0334                   l2422 0326                   l2414 02EC  
                 l2406 02BA                   l2350 0176                   l2342 014E  
                 l2334 0124                   l2326 00D0                   l2318 0084  
                 l2248 0562                   l2272 04A0                   l2280 04AC  
                 l2264 0482                   l2256 046E                   l2440 035E  
                 l2432 033E                   l2424 032E                   l2416 0308  
                 l2408 02CE                   l2360 01AA                   l2352 0180  
                 l2344 0158                   l2336 012E                   l2328 00D2  
                 l2290 04C4                   l2282 04B0                   l2274 04A4  
                 l2266 0484                   l2258 0472                   l2194 04C6  
                 l2450 0394                   l2442 036C                   l2434 0340  
                 l2426 0330                   l2418 030A                   l2370 01FE  
                 l2362 01BA                   l2354 0190                   l2346 0168  
                 l2338 013E                   l2284 04BA                   l2276 04A6  
                 l2268 048E                   l2196 04D6                   l2460 03BE  
                 l2452 0398                   l2444 0370                   l2436 0346  
                 l2428 0332                   l2380 0228                   l2372 0200  
                 l2364 01BC                   l2356 0192                   l2348 016A  
                 l2292 0020                   l2286 04BE                   l2278 04AA  
                 l2198 0518                   l2454 03A8                   l2446 0380  
                 l2462 03D6                   l2438 0352                   l2390 026E  
                 l2382 0232                   l2374 020A                   l2366 01E2  
                 l2358 01A0                   l2294 0038                   l2288 04C0  
                 l2456 03AC                   l2448 0384                   l2392 027A  
                 l2384 0242                   l2376 021A                   l2368 01EE  
                 l2464 03E4                   l2296 003E                   l2458 03BC  
                 l2394 0280                   l2386 0244                   l2378 0220  
                 l2298 0040                   l2396 02A2                   l2388 0250  
                 l2398 02AA                   _ADON 007E10                   u2200 046E  
                 u2201 046C                   u2210 047E                   u2211 047C  
                 u2220 048E                   u2140 041E                   u2300 01B8  
                 u2221 048C                   u2141 041C                   u2301 01B6  
                 _LATA 000F89                   u2230 04A0                   u2150 043C  
                 _LATB 000F8A                   u2231 049E                   u2151 043A  
                 _LATC 000F8B                   u2240 04BA                   u2160 045C  
                 u2400 0352                   u2320 01FC                   _LATD 000F8C  
                 u2241 04B8                   u2161 045A                   u2401 0350  
                 u2321 01FA                   _LATE 000F8D                   u2170 053E  
                 u2410 036C                   u2330 0218                   u2250 0066  
                 _LATF 000F8E                   u2171 053C                   u2411 036A  
                 u2331 0216                   u2315 01CC                   u2251 0064  
                 _LATG 000F8F                   u2180 055A                   u2420 0380  
                 u2340 0240                   u2260 006E                   u2181 0558  
                 u2421 037E                   u2341 023E                   u2261 006C  
                 u2190 059A                   u2430 0394                   u2350 028E  
                 u2270 013C                   u2191 0598                   u2431 0392  
                 u2351 028C                   u2271 013A                   u2440 03A8  
                 u2360 02B8                   u2280 0166                   u2441 03A6  
                 u2361 02B6                   u2281 0164                   u2450 03BC  
                 u2370 02E8                   u2290 018E                   u2451 03BA  
                 u2371 02E6                   u2291 018C                   u2380 031E  
                 u2381 031C                   u2390 033C                   u2391 033A  
                 _RBPU 007F8F                   _getc 051C                   _main 0020  
                 indf2 000FDF                   _putc 058E                   fsr2l 000FD9  
                 prodl 000FF3                   start 001C          __CFG_MCLRE$ON 000000  
         _BAUDCON1bits 000F65                  ?_getc 0001                  ?_main 0001  
                ?_putc 0001                  _RC1IE 007CED                  _RC1IF 007CF5  
                _RCREG 000FAE                  _PLLEN 007CDE                  _TX1IE 007CEC  
                _TRISA 000F92                  _TRISB 000F93                  _TRISC 000F94  
                _TRISD 000F95                  _TRISE 000F96                  _TRISF 000F97  
                _TRISG 000F98                  _TXREG 000FAD         __CFG_BOREN$OFF 000000  
                status 000FD8       main@BlockAddress 00E6       __end_of_Delay_ms 0460  
         __end_of_getc 0564           __end_of_main 03F8           __end_of_putc 05A0  
               ??_getc 0001                 ??_main 0008                 ??_putc 0002  
     __end_of_Set_Pins 051C          __activetblptr 000000         __CFG_PLLCFG$ON 000000  
       __CFG_RETEN$OFF 000000                 _EECON2 000F7E                 _ANCON0 000F25  
               _ANCON1 000F24                 _ANCON2 000F23         __CFG_WDTEN$OFF 000000  
               _TABLAT 000FF5                 _SPBRG1 000FAF         __CFG_XINST$OFF 000000  
               _gethex 0460             _Setup_UART 0564                 main@ab 00E0  
               main@cc 00E4             __accesstop 0060         __pcstackCOMRAM 0001  
            ?_Delay_ms 0001              ?_Set_Pins 0001     __CFG_CCP2MX$PORTBE 000000  
              ?_gethex 0001            ?_Setup_UART 0001             ??_Delay_ms 0003  
              _TBLPTRH 000FF7                _TBLPTRL 000FF6                _TBLPTRU 000FF8  
              _SPBRGH1 000FD4             ??_Set_Pins 0001                __Hparam 0000  
              __Lparam 0000        __size_of_gethex 0066  __CFG_RTCOSC$INTOSCREF 000000  
              __pcinit 05A0                __ramtop 1000                __ptext0 0020  
              __ptext1 04C6                __ptext2 0564                __ptext3 03F8  
              __ptext4 058E                __ptext5 0460                __ptext6 051C  
              __ptext7 0000                main@idx 00E5                main@inp 00E2  
 end_of_initialization 05A0    __size_of_Setup_UART 002A                putc@dat 0001  
            _PORTCbits 000F82              _PORTFbits 000F85       __CFG_FOSC$INTIO2 000000  
            _TRISAbits 000F92              _TRISBbits 000F93              _TRISCbits 000F94  
           main@Buffer 0060             gethex@temp 0003         __end_of_gethex 04C6  
  start_initialization 05A0      __size_of_Delay_ms 0068      __size_of_Set_Pins 0056  
         Delay_ms@temp 0006               ??_gethex 0003           ??_Setup_UART 0001  
        __pcstackBANK0 0060     __end_of_Setup_UART 058E       __CFG_SOSCSEL$DIG 000000  
             _Delay_ms 03F8             _EECON1bits 000F7F               _Set_Pins 04C6  
             __Hrparam 0000               __Lrparam 0000            Delay_ms@idx 0004  
        __size_of_getc 0048          __size_of_main 03D8          __size_of_putc 0012  
             getc@temp 0002               main@tbuf 00E3               main@temp 00EA  
  __CFG_INTOSCSEL$HIGH 000000             _INTCONbits 000FF2             Delay_ms@ms 0001  
           _RCSTA1bits 000FAB             _OSCCONbits 000FD3  
